(dp0
S'appl_845'
p1
(lp2
sS'appl_440'
p3
(lp4
sS'appl_439'
p5
(lp6
sS'appl_438'
p7
(lp8
sS'appl_437'
p9
(lp10
sS'appl_436'
p11
(lp12
sS'appl_435'
p13
(lp14
sS'appl_434'
p15
(lp16
sS'appl_433'
p17
(lp18
sS'appl_432'
p19
(lp20
sS'appl_431'
p21
(lp22
sS'appl_430'
p23
(lp24
sS'appl_842'
p25
(lp26
sS'appl_779'
p27
(lp28
sS'appl_843'
p29
(lp30
sS'appl_957'
p31
(lp32
sS'appl_840'
p33
(lp34
sS'appl_18'
p35
(lp36
S'University of Arkansas for Medical Sciences Program'
p37
asS'appl_19'
p38
(lp39
g37
aS"St Joseph's Hospital and Medical Center Program"
p40
aS'University of Alabama Medical Center Program'
p41
aS'University of South Alabama Program'
p42
aS'Brookwood Baptist Health Program'
p43
asS'appl_615'
p44
(lp45
sS'appl_12'
p46
(lp47
g43
ag42
ag41
asS'appl_13'
p48
(lp49
g43
ag41
ag40
ag37
asS'appl_10'
p50
(lp51
g37
ag40
ag42
ag41
asS'appl_11'
p52
(lp53
g37
asS'appl_16'
p54
(lp55
g41
ag43
ag40
asS'appl_17'
p56
(lp57
g41
ag40
ag42
asS'appl_14'
p58
(lp59
g42
ag40
ag41
ag43
asS'appl_15'
p60
(lp61
g43
ag40
ag42
asS'appl_132'
p62
(lp63
sS'appl_133'
p64
(lp65
sS'appl_130'
p66
(lp67
sS'appl_131'
p68
(lp69
sS'appl_136'
p70
(lp71
sS'appl_137'
p72
(lp73
sS'appl_134'
p74
(lp75
sS'appl_135'
p76
(lp77
sS'appl_396'
p78
(lp79
sS'appl_138'
p80
(lp81
sS'appl_139'
p82
(lp83
sS'appl_963'
p84
(lp85
sS'appl_397'
p86
(lp87
sS'appl_961'
p88
(lp89
sS'appl_318'
p90
(lp91
sS'appl_319'
p92
(lp93
sS'appl_614'
p94
(lp95
sS'appl_649'
p96
(lp97
sS'appl_689'
p98
(lp99
sS'appl_312'
p100
(lp101
sS'appl_313'
p102
(lp103
sS'appl_310'
p104
(lp105
sS'appl_311'
p106
(lp107
sS'appl_316'
p108
(lp109
sS'appl_317'
p110
(lp111
sS'appl_314'
p112
(lp113
sS'appl_315'
p114
(lp115
sS'appl_723'
p116
(lp117
sS'appl_722'
p118
(lp119
sS'appl_488'
p120
(lp121
sS'appl_489'
p122
(lp123
sS'appl_727'
p124
(lp125
sS'appl_726'
p126
(lp127
sS'appl_725'
p128
(lp129
sS'appl_724'
p130
(lp131
sS'appl_482'
p132
(lp133
sS'appl_483'
p134
(lp135
sS'appl_480'
p136
(lp137
sS'appl_481'
p138
(lp139
sS'appl_486'
p140
(lp141
sS'appl_398'
p142
(lp143
sS'appl_484'
p144
(lp145
sS'appl_485'
p146
(lp147
sS'appl_521'
p148
(lp149
sS'appl_399'
p150
(lp151
sS'appl_520'
p152
(lp153
sS'appl_938'
p154
(lp155
sS'appl_969'
p156
(lp157
sS'appl_939'
p158
(lp159
sS'appl_937'
p160
(lp161
sS'appl_69'
p162
(lp163
g40
ag37
ag43
ag42
asS'appl_68'
p164
(lp165
g43
ag40
ag41
asS'appl_67'
p166
(lp167
g37
ag43
asS'appl_66'
p168
(lp169
g37
ag42
ag43
asS'appl_65'
p170
(lp171
g42
ag41
asS'appl_64'
p172
(lp173
g40
ag37
ag43
asS'appl_63'
p174
(lp175
g37
asS'appl_62'
p176
(lp177
g41
ag43
asS'appl_61'
p178
(lp179
g43
ag37
asS'appl_60'
p180
(lp181
g43
ag37
ag40
ag41
ag42
asS'appl_899'
p182
(lp183
sS'appl_898'
p184
(lp185
sS'appl_891'
p186
(lp187
sS'appl_890'
p188
(lp189
sS'appl_893'
p190
(lp191
sS'appl_892'
p192
(lp193
sS'appl_895'
p194
(lp195
sS'appl_894'
p196
(lp197
sS'appl_897'
p198
(lp199
sS'appl_896'
p200
(lp201
sS'appl_547'
p202
(lp203
sS'appl_529'
p204
(lp205
sS'appl_545'
p206
(lp207
sS'appl_544'
p208
(lp209
sS'appl_543'
p210
(lp211
sS'appl_542'
p212
(lp213
sS'appl_268'
p214
(lp215
sS'appl_269'
p216
(lp217
sS'appl_266'
p218
(lp219
sS'appl_267'
p220
(lp221
sS'appl_264'
p222
(lp223
sS'appl_265'
p224
(lp225
sS'appl_262'
p226
(lp227
sS'appl_263'
p228
(lp229
sS'appl_260'
p230
(lp231
sS'appl_261'
p232
(lp233
sS'appl_931'
p234
(lp235
sS'appl_798'
p236
(lp237
sS'appl_799'
p238
(lp239
sS'appl_796'
p240
(lp241
sS'appl_797'
p242
(lp243
sS'appl_794'
p244
(lp245
sS'appl_795'
p246
(lp247
sS'appl_741'
p248
(lp249
sS'appl_793'
p250
(lp251
sS'appl_790'
p252
(lp253
sS'appl_791'
p254
(lp255
sS'appl_934'
p256
(lp257
sS'appl_935'
p258
(lp259
sS'appl_608'
p260
(lp261
sS'appl_777'
p262
(lp263
sS'appl_740'
p264
(lp265
sS'appl_883'
p266
(lp267
sS'appl_864'
p268
(lp269
sS'appl_378'
p270
(lp271
sS'appl_866'
p272
(lp273
sS'appl_867'
p274
(lp275
sS'appl_860'
p276
(lp277
sS'appl_861'
p278
(lp279
sS'appl_770'
p280
(lp281
sS'appl_379'
p282
(lp283
sS'appl_943'
p284
(lp285
sS'appl_942'
p286
(lp287
sS'appl_941'
p288
(lp289
sS'appl_940'
p290
(lp291
sS'appl_868'
p292
(lp293
sS'appl_869'
p294
(lp295
sS'appl_945'
p296
(lp297
sS'appl_944'
p298
(lp299
sS'appl_581'
p300
(lp301
sS'appl_370'
p302
(lp303
sS'appl_580'
p304
(lp305
sS'appl_371'
p306
(lp307
sS'appl_998'
p308
(lp309
sS'appl_999'
p310
(lp311
sS'appl_994'
p312
(lp313
sS'appl_872'
p314
(lp315
sS'appl_995'
p316
(lp317
sS'appl_589'
p318
(lp319
sS'appl_588'
p320
(lp321
sS'appl_769'
p322
(lp323
sS'appl_540'
p324
(lp325
sS'appl_767'
p326
(lp327
sS'appl_766'
p328
(lp329
sS'appl_765'
p330
(lp331
sS'appl_764'
p332
(lp333
sS'appl_763'
p334
(lp335
sS'appl_762'
p336
(lp337
sS'appl_761'
p338
(lp339
sS'appl_760'
p340
(lp341
sS'appl_194'
p342
(lp343
sS'appl_195'
p344
(lp345
sS'appl_196'
p346
(lp347
sS'appl_197'
p348
(lp349
sS'appl_190'
p350
(lp351
sS'appl_191'
p352
(lp353
sS'appl_192'
p354
(lp355
sS'appl_193'
p356
(lp357
sS'appl_993'
p358
(lp359
sS'appl_198'
p360
(lp361
sS'appl_199'
p362
(lp363
sS'appl_448'
p364
(lp365
sS'appl_449'
p366
(lp367
sS'appl_23'
p368
(lp369
g43
ag37
asS'appl_22'
p370
(lp371
g43
ag42
ag37
ag41
asS'appl_21'
p372
(lp373
g40
asS'appl_20'
p374
(lp375
sS'appl_27'
p376
(lp377
g37
asS'appl_26'
p378
(lp379
g40
ag43
asS'appl_25'
p380
(lp381
g40
ag42
ag41
ag37
asS'appl_24'
p382
(lp383
g42
ag37
ag40
ag41
asS'appl_29'
p384
(lp385
g37
ag42
ag43
ag41
asS'appl_28'
p386
(lp387
g43
ag41
ag42
ag40
asS'appl_611'
p388
(lp389
sS'appl_803'
p390
(lp391
sS'appl_169'
p392
(lp393
sS'appl_168'
p394
(lp395
sS'appl_610'
p396
(lp397
sS'appl_161'
p398
(lp399
sS'appl_160'
p400
(lp401
sS'appl_163'
p402
(lp403
sS'appl_162'
p404
(lp405
sS'appl_165'
p406
(lp407
sS'appl_164'
p408
(lp409
sS'appl_167'
p410
(lp411
sS'appl_166'
p412
(lp413
sS'appl_583'
p414
(lp415
sS'appl_582'
p416
(lp417
sS'appl_228'
p418
(lp419
sS'appl_229'
p420
(lp421
sS'appl_587'
p422
(lp423
sS'appl_586'
p424
(lp425
sS'appl_585'
p426
(lp427
sS'appl_584'
p428
(lp429
sS'appl_222'
p430
(lp431
sS'appl_223'
p432
(lp433
sS'appl_220'
p434
(lp435
sS'appl_221'
p436
(lp437
sS'appl_226'
p438
(lp439
sS'appl_227'
p440
(lp441
sS'appl_224'
p442
(lp443
sS'appl_225'
p444
(lp445
sS'appl_341'
p446
(lp447
sS'appl_340'
p448
(lp449
sS'appl_343'
p450
(lp451
sS'appl_342'
p452
(lp453
sS'appl_345'
p454
(lp455
sS'appl_344'
p456
(lp457
sS'appl_347'
p458
(lp459
sS'appl_346'
p460
(lp461
sS'appl_349'
p462
(lp463
sS'appl_348'
p464
(lp465
sS'appl_619'
p466
(lp467
sS'appl_618'
p468
(lp469
sS'appl_749'
p470
(lp471
sS'appl_644'
p472
(lp473
sS'appl_299'
p474
(lp475
sS'appl_298'
p476
(lp477
sS'appl_297'
p478
(lp479
sS'appl_296'
p480
(lp481
sS'appl_295'
p482
(lp483
sS'appl_294'
p484
(lp485
sS'appl_293'
p486
(lp487
sS'appl_292'
p488
(lp489
sS'appl_291'
p490
(lp491
sS'appl_290'
p492
(lp493
sS'appl_647'
p494
(lp495
sS'appl_640'
p496
(lp497
sS'appl_641'
p498
(lp499
sS'appl_978'
p500
(lp501
sS'appl_642'
p502
(lp503
sS'appl_538'
p504
(lp505
sS'appl_539'
p506
(lp507
sS'appl_536'
p508
(lp509
sS'appl_537'
p510
(lp511
sS'appl_534'
p512
(lp513
sS'appl_535'
p514
(lp515
sS'appl_532'
p516
(lp517
sS'appl_533'
p518
(lp519
sS'appl_530'
p520
(lp521
sS'appl_531'
p522
(lp523
sS'appl_907'
p524
(lp525
sS'appl_906'
p526
(lp527
sS'appl_905'
p528
(lp529
sS'appl_904'
p530
(lp531
sS'appl_903'
p532
(lp533
sS'appl_902'
p534
(lp535
sS'appl_901'
p536
(lp537
sS'appl_900'
p538
(lp539
sS'appl_709'
p540
(lp541
sS'appl_721'
p542
(lp543
sS'appl_909'
p544
(lp545
sS'appl_908'
p546
(lp547
sS'appl_979'
p548
(lp549
sS'appl_720'
p550
(lp551
sS'appl_708'
p552
(lp553
sS'appl_528'
p554
(lp555
sS'appl_778'
p556
(lp557
sS'appl_729'
p558
(lp559
sS'appl_670'
p560
(lp561
sS'appl_839'
p562
(lp563
sS'appl_728'
p564
(lp565
sS'appl_833'
p566
(lp567
sS'appl_643'
p568
(lp569
sS'appl_831'
p570
(lp571
sS'appl_830'
p572
(lp573
sS'appl_837'
p574
(lp575
sS'appl_836'
p576
(lp577
sS'appl_835'
p578
(lp579
sS'appl_487'
p580
(lp581
sS'appl_603'
p582
(lp583
sS'appl_150'
p584
(lp585
sS'appl_151'
p586
(lp587
sS'appl_152'
p588
(lp589
sS'appl_153'
p590
(lp591
sS'appl_154'
p592
(lp593
sS'appl_155'
p594
(lp595
sS'appl_156'
p596
(lp597
sS'appl_157'
p598
(lp599
sS'appl_158'
p600
(lp601
sS'appl_159'
p602
(lp603
sS'appl_408'
p604
(lp605
sS'appl_409'
p606
(lp607
sS'appl_771'
p608
(lp609
sS'appl_736'
p610
(lp611
sS'appl_809'
p612
(lp613
sS'appl_997'
p614
(lp615
sS'appl_125'
p616
(lp617
sS'appl_124'
p618
(lp619
sS'appl_127'
p620
(lp621
sS'appl_126'
p622
(lp623
sS'appl_121'
p624
(lp625
sS'appl_120'
p626
(lp627
sS'appl_123'
p628
(lp629
sS'appl_122'
p630
(lp631
sS'appl_129'
p632
(lp633
sS'appl_128'
p634
(lp635
sS'appl_919'
p636
(lp637
sS'appl_309'
p638
(lp639
sS'appl_308'
p640
(lp641
sS'appl_659'
p642
(lp643
sS'appl_658'
p644
(lp645
sS'appl_305'
p646
(lp647
sS'appl_304'
p648
(lp649
sS'appl_307'
p650
(lp651
sS'appl_306'
p652
(lp653
sS'appl_301'
p654
(lp655
sS'appl_300'
p656
(lp657
sS'appl_303'
p658
(lp659
sS'appl_302'
p660
(lp661
sS'appl_716'
p662
(lp663
sS'appl_717'
p664
(lp665
sS'appl_714'
p666
(lp667
sS'appl_715'
p668
(lp669
sS'appl_499'
p670
(lp671
sS'appl_498'
p672
(lp673
sS'appl_710'
p674
(lp675
sS'appl_711'
p676
(lp677
sS'appl_495'
p678
(lp679
sS'appl_494'
p680
(lp681
sS'appl_497'
p682
(lp683
sS'appl_496'
p684
(lp685
sS'appl_491'
p686
(lp687
sS'appl_490'
p688
(lp689
sS'appl_493'
p690
(lp691
sS'appl_492'
p692
(lp693
sS'appl_951'
p694
(lp695
sS'appl_392'
p696
(lp697
sS'appl_393'
p698
(lp699
sS'appl_390'
p700
(lp701
sS'appl_391'
p702
(lp703
sS'appl_78'
p704
(lp705
sS'appl_79'
p706
(lp707
sS'appl_394'
p708
(lp709
sS'appl_395'
p710
(lp711
sS'appl_74'
p712
(lp713
sS'appl_75'
p714
(lp715
sS'appl_76'
p716
(lp717
sS'appl_77'
p718
(lp719
sS'appl_70'
p720
(lp721
sS'appl_71'
p722
(lp723
sS'appl_72'
p724
(lp725
sS'appl_73'
p726
(lp727
sS'appl_748'
p728
(lp729
sS'appl_578'
p730
(lp731
sS'appl_579'
p732
(lp733
sS'appl_572'
p734
(lp735
sS'appl_573'
p736
(lp737
sS'appl_570'
p738
(lp739
sS'appl_571'
p740
(lp741
sS'appl_576'
p742
(lp743
sS'appl_577'
p744
(lp745
sS'appl_574'
p746
(lp747
sS'appl_575'
p748
(lp749
sS'appl_271'
p750
(lp751
sS'appl_270'
p752
(lp753
sS'appl_273'
p754
(lp755
sS'appl_272'
p756
(lp757
sS'appl_275'
p758
(lp759
sS'appl_274'
p760
(lp761
sS'appl_277'
p762
(lp763
sS'appl_276'
p764
(lp765
sS'appl_279'
p766
(lp767
sS'appl_278'
p768
(lp769
sS'appl_372'
p770
(lp771
sS'appl_373'
p772
(lp773
sS'appl_374'
p774
(lp775
sS'appl_375'
p776
(lp777
sS'appl_376'
p778
(lp779
sS'appl_377'
p780
(lp781
sS'appl_781'
p782
(lp783
sS'appl_780'
p784
(lp785
sS'appl_783'
p786
(lp787
sS'appl_782'
p788
(lp789
sS'appl_785'
p790
(lp791
sS'appl_784'
p792
(lp793
sS'appl_787'
p794
(lp795
sS'appl_786'
p796
(lp797
sS'appl_789'
p798
(lp799
sS'appl_788'
p800
(lp801
sS'appl_918'
p802
(lp803
sS'appl_609'
p804
(lp805
sS'appl_885'
p806
(lp807
sS'appl_415'
p808
(lp809
sS'appl_975'
p810
(lp811
sS'appl_414'
p812
(lp813
sS'appl_417'
p814
(lp815
sS'appl_882'
p816
(lp817
sS'appl_834'
p818
(lp819
sS'appl_416'
p820
(lp821
sS'appl_970'
p822
(lp823
sS'appl_730'
p824
(lp825
sS'appl_411'
p826
(lp827
sS'appl_971'
p828
(lp829
sS'appl_410'
p830
(lp831
sS'appl_877'
p832
(lp833
sS'appl_876'
p834
(lp835
sS'appl_875'
p836
(lp837
sS'appl_874'
p838
(lp839
sS'appl_873'
p840
(lp841
sS'appl_413'
p842
(lp843
sS'appl_871'
p844
(lp845
sS'appl_870'
p846
(lp847
sS'appl_976'
p848
(lp849
sS'appl_977'
p850
(lp851
sS'appl_974'
p852
(lp853
sS'appl_412'
p854
(lp855
sS'appl_972'
p856
(lp857
sS'appl_973'
p858
(lp859
sS'appl_879'
p860
(lp861
sS'appl_878'
p862
(lp863
sS'appl_731'
p864
(lp865
sS'appl_702'
p866
(lp867
sS'appl_757'
p868
(lp869
sS'appl_607'
p870
(lp871
sS'appl_832'
p872
(lp873
sS'appl_546'
p874
(lp875
sS'appl_881'
p876
(lp877
sS'appl_459'
p878
(lp879
sS'appl_458'
p880
(lp881
sS'appl_750'
p882
(lp883
sS'appl_751'
p884
(lp885
sS'appl_756'
p886
(lp887
sS'appl_541'
p888
(lp889
sS'appl_754'
p890
(lp891
sS'appl_755'
p892
(lp893
sS'appl_451'
p894
(lp895
sS'appl_450'
p896
(lp897
sS'appl_453'
p898
(lp899
sS'appl_452'
p900
(lp901
sS'appl_455'
p902
(lp903
sS'appl_454'
p904
(lp905
sS'appl_457'
p906
(lp907
sS'appl_456'
p908
(lp909
sS'appl_187'
p910
(lp911
sS'appl_186'
p912
(lp913
sS'appl_185'
p914
(lp915
sS'appl_184'
p916
(lp917
sS'appl_183'
p918
(lp919
sS'appl_182'
p920
(lp921
sS'appl_181'
p922
(lp923
sS'appl_180'
p924
(lp925
sS'appl_189'
p926
(lp927
sS'appl_188'
p928
(lp929
sS'appl_30'
p930
(lp931
g40
ag37
ag43
asS'appl_31'
p932
(lp933
g37
ag42
ag40
asS'appl_32'
p934
(lp935
g43
ag37
ag40
asS'appl_33'
p936
(lp937
g40
ag37
ag41
asS'appl_34'
p938
(lp939
g41
asS'appl_35'
p940
(lp941
g43
ag41
ag37
asS'appl_36'
p942
(lp943
g43
ag37
asS'appl_37'
p944
(lp945
g41
ag43
asS'appl_38'
p946
(lp947
g43
ag37
ag42
asS'appl_39'
p948
(lp949
g43
ag41
ag40
ag37
asS'appl_928'
p950
(lp951
sS'appl_118'
p952
(lp953
sS'appl_119'
p954
(lp955
sS'appl_648'
p956
(lp957
sS'appl_114'
p958
(lp959
sS'appl_115'
p960
(lp961
sS'appl_116'
p962
(lp963
sS'appl_117'
p964
(lp965
sS'appl_110'
p966
(lp967
sS'appl_111'
p968
(lp969
sS'appl_112'
p970
(lp971
sS'appl_113'
p972
(lp973
sS'appl_239'
p974
(lp975
sS'appl_238'
p976
(lp977
sS'appl_989'
p978
(lp979
sS'appl_988'
p980
(lp981
sS'appl_235'
p982
(lp983
sS'appl_234'
p984
(lp985
sS'appl_237'
p986
(lp987
sS'appl_236'
p988
(lp989
sS'appl_231'
p990
(lp991
sS'appl_230'
p992
(lp993
sS'appl_233'
p994
(lp995
sS'appl_232'
p996
(lp997
sS'appl_334'
p998
(lp999
sS'appl_335'
p1000
(lp1001
sS'appl_336'
p1002
(lp1003
sS'appl_337'
p1004
(lp1005
sS'appl_330'
p1006
(lp1007
sS'appl_331'
p1008
(lp1009
sS'appl_332'
p1010
(lp1011
sS'appl_333'
p1012
(lp1013
sS'appl_606'
p1014
(lp1015
sS'appl_338'
p1016
(lp1017
sS'appl_339'
p1018
(lp1019
sS'appl_628'
p1020
(lp1021
sS'appl_629'
p1022
(lp1023
sS'appl_600'
p1024
(lp1025
sS'appl_601'
p1026
(lp1027
sS'appl_737'
p1028
(lp1029
sS'appl_602'
p1030
(lp1031
sS'appl_984'
p1032
(lp1033
sS'appl_85'
p1034
(lp1035
sS'appl_84'
p1036
(lp1037
sS'appl_87'
p1038
(lp1039
sS'appl_86'
p1040
(lp1041
sS'appl_81'
p1042
(lp1043
sS'appl_80'
p1044
(lp1045
sS'appl_83'
p1046
(lp1047
sS'appl_82'
p1048
(lp1049
sS'appl_921'
p1050
(lp1051
sS'appl_604'
p1052
(lp1053
sS'appl_89'
p1054
(lp1055
sS'appl_88'
p1056
(lp1057
sS'appl_929'
p1058
(lp1059
sS'appl_605'
p1060
(lp1061
sS'appl_358'
p1062
(lp1063
sS'appl_925'
p1064
(lp1065
sS'appl_792'
p1066
(lp1067
sS'appl_838'
p1068
(lp1069
sS'appl_359'
p1070
(lp1071
sS'appl_248'
p1072
(lp1073
sS'appl_249'
p1074
(lp1075
sS'appl_523'
p1076
(lp1077
sS'appl_522'
p1078
(lp1079
sS'appl_525'
p1080
(lp1081
sS'appl_524'
p1082
(lp1083
sS'appl_527'
p1084
(lp1085
sS'appl_526'
p1086
(lp1087
sS'appl_240'
p1088
(lp1089
sS'appl_241'
p1090
(lp1091
sS'appl_242'
p1092
(lp1093
sS'appl_243'
p1094
(lp1095
sS'appl_244'
p1096
(lp1097
sS'appl_245'
p1098
(lp1099
sS'appl_246'
p1100
(lp1101
sS'appl_247'
p1102
(lp1103
sS'appl_924'
p1104
(lp1105
sS'appl_982'
p1106
(lp1107
sS'appl_350'
p1108
(lp1109
sS'appl_351'
p1110
(lp1111
sS'appl_888'
p1112
(lp1113
sS'appl_927'
p1114
(lp1115
sS'appl_889'
p1116
(lp1117
sS'appl_327'
p1118
(lp1119
sS'appl_808'
p1120
(lp1121
sS'appl_326'
p1122
(lp1123
sS'appl_806'
p1124
(lp1125
sS'appl_807'
p1126
(lp1127
sS'appl_804'
p1128
(lp1129
sS'appl_805'
p1130
(lp1131
sS'appl_802'
p1132
(lp1133
sS'appl_732'
p1134
(lp1135
sS'appl_800'
p1136
(lp1137
sS'appl_801'
p1138
(lp1139
sS'appl_733'
p1140
(lp1141
sS'appl_734'
p1142
(lp1143
sS'appl_735'
p1144
(lp1145
sS'appl_143'
p1146
(lp1147
sS'appl_142'
p1148
(lp1149
sS'appl_141'
p1150
(lp1151
sS'appl_140'
p1152
(lp1153
sS'appl_147'
p1154
(lp1155
sS'appl_146'
p1156
(lp1157
sS'appl_145'
p1158
(lp1159
sS'appl_144'
p1160
(lp1161
sS'appl_149'
p1162
(lp1163
sS'appl_148'
p1164
(lp1165
sS'appl_419'
p1166
(lp1167
sS'appl_418'
p1168
(lp1169
sS'appl_738'
p1170
(lp1171
sS'appl_739'
p1172
(lp1173
sS'appl_920'
p1174
(lp1175
sS'appl_964'
p1176
(lp1177
sS'appl_329'
p1178
(lp1179
sS'appl_328'
p1180
(lp1181
sS'appl_923'
p1182
(lp1183
sS'appl_703'
p1184
(lp1185
sS'appl_662'
p1186
(lp1187
sS'appl_663'
p1188
(lp1189
sS'appl_660'
p1190
(lp1191
sS'appl_661'
p1192
(lp1193
sS'appl_666'
p1194
(lp1195
sS'appl_667'
p1196
(lp1197
sS'appl_664'
p1198
(lp1199
sS'appl_665'
p1200
(lp1201
sS'appl_701'
p1202
(lp1203
sS'appl_700'
p1204
(lp1205
sS'appl_668'
p1206
(lp1207
sS'appl_669'
p1208
(lp1209
sS'appl_705'
p1210
(lp1211
sS'appl_704'
p1212
(lp1213
sS'appl_707'
p1214
(lp1215
sS'appl_706'
p1216
(lp1217
sS'appl_460'
p1218
(lp1219
sS'appl_461'
p1220
(lp1221
sS'appl_462'
p1222
(lp1223
sS'appl_463'
p1224
(lp1225
sS'appl_464'
p1226
(lp1227
sS'appl_465'
p1228
(lp1229
sS'appl_466'
p1230
(lp1231
sS'appl_467'
p1232
(lp1233
sS'appl_468'
p1234
(lp1235
sS'appl_469'
p1236
(lp1237
sS'appl_922'
p1238
(lp1239
sS'appl_829'
p1240
(lp1241
sS'appl_49'
p1242
(lp1243
g41
ag37
ag43
asS'appl_48'
p1244
(lp1245
g37
asS'appl_387'
p1246
(lp1247
sS'appl_386'
p1248
(lp1249
sS'appl_381'
p1250
(lp1251
sS'appl_380'
p1252
(lp1253
sS'appl_383'
p1254
(lp1255
sS'appl_382'
p1256
(lp1257
sS'appl_41'
p1258
(lp1259
g41
ag37
ag43
asS'appl_40'
p1260
(lp1261
g43
ag42
ag41
ag37
asS'appl_43'
p1262
(lp1263
g42
ag40
asS'appl_42'
p1264
(lp1265
g37
ag42
ag40
asS'appl_45'
p1266
(lp1267
g41
ag40
asS'appl_44'
p1268
(lp1269
g43
ag42
ag40
ag37
ag41
asS'appl_47'
p1270
(lp1271
g43
ag42
ag40
ag41
asS'appl_46'
p1272
(lp1273
g40
ag37
asS'appl_752'
p1274
(lp1275
sS'appl_569'
p1276
(lp1277
sS'appl_568'
p1278
(lp1279
sS'appl_753'
p1280
(lp1281
sS'appl_565'
p1282
(lp1283
sS'appl_564'
p1284
(lp1285
sS'appl_567'
p1286
(lp1287
sS'appl_441'
p1288
(lp1289
sS'appl_561'
p1290
(lp1291
sS'appl_560'
p1292
(lp1293
sS'appl_563'
p1294
(lp1295
sS'appl_562'
p1296
(lp1297
sS'appl_204'
p1298
(lp1299
sS'appl_205'
p1300
(lp1301
sS'appl_206'
p1302
(lp1303
sS'appl_207'
p1304
(lp1305
sS'appl_200'
p1306
(lp1307
sS'appl_201'
p1308
(lp1309
sS'appl_202'
p1310
(lp1311
sS'appl_203'
p1312
(lp1313
sS'appl_363'
p1314
(lp1315
sS'appl_362'
p1316
(lp1317
sS'appl_361'
p1318
(lp1319
sS'appl_360'
p1320
(lp1321
sS'appl_208'
p1322
(lp1323
sS'appl_209'
p1324
(lp1325
sS'appl_365'
p1326
(lp1327
sS'appl_364'
p1328
(lp1329
sS'appl_654'
p1330
(lp1331
sS'appl_916'
p1332
(lp1333
sS'appl_758'
p1334
(lp1335
sS'appl_653'
p1336
(lp1337
sS'appl_759'
p1338
(lp1339
sS'appl_865'
p1340
(lp1341
sS'appl_949'
p1342
(lp1343
sS'appl_518'
p1344
(lp1345
sS'appl_519'
p1346
(lp1347
sS'appl_848'
p1348
(lp1349
sS'appl_849'
p1350
(lp1351
sS'appl_510'
p1352
(lp1353
sS'appl_511'
p1354
(lp1355
sS'appl_512'
p1356
(lp1357
sS'appl_513'
p1358
(lp1359
sS'appl_514'
p1360
(lp1361
sS'appl_515'
p1362
(lp1363
sS'appl_516'
p1364
(lp1365
sS'appl_517'
p1366
(lp1367
sS'appl_688'
p1368
(lp1369
sS'appl_549'
p1370
(lp1371
sS'appl_863'
p1372
(lp1373
sS'appl_962'
p1374
(lp1375
sS'appl_965'
p1376
(lp1377
sS'appl_862'
p1378
(lp1379
sS'appl_967'
p1380
(lp1381
sS'appl_966'
p1382
(lp1383
sS'appl_680'
p1384
(lp1385
sS'appl_681'
p1386
(lp1387
sS'appl_682'
p1388
(lp1389
sS'appl_683'
p1390
(lp1391
sS'appl_684'
p1392
(lp1393
sS'appl_685'
p1394
(lp1395
sS'appl_686'
p1396
(lp1397
sS'appl_687'
p1398
(lp1399
sS'appl_651'
p1400
(lp1401
sS'appl_402'
p1402
(lp1403
sS'appl_403'
p1404
(lp1405
sS'appl_947'
p1406
(lp1407
sS'appl_400'
p1408
(lp1409
sS'appl_946'
p1410
(lp1411
sS'appl_855'
p1412
(lp1413
sS'appl_401'
p1414
(lp1415
sS'appl_854'
p1416
(lp1417
sS'appl_406'
p1418
(lp1419
sS'appl_841'
p1420
(lp1421
sS'appl_650'
p1422
(lp1423
sS'appl_857'
p1424
(lp1425
sS'appl_407'
p1426
(lp1427
sS'appl_385'
p1428
(lp1429
sS'appl_856'
p1430
(lp1431
sS'appl_404'
p1432
(lp1433
sS'appl_384'
p1434
(lp1435
sS'appl_851'
p1436
(lp1437
sS'appl_405'
p1438
(lp1439
sS'appl_850'
p1440
(lp1441
sS'appl_853'
p1442
(lp1443
sS'appl_846'
p1444
(lp1445
sS'appl_852'
p1446
(lp1447
sS'appl_745'
p1448
(lp1449
sS'appl_744'
p1450
(lp1451
sS'appl_747'
p1452
(lp1453
sS'appl_746'
p1454
(lp1455
sS'appl_428'
p1456
(lp1457
sS'appl_429'
p1458
(lp1459
sS'appl_743'
p1460
(lp1461
sS'appl_742'
p1462
(lp1463
sS'appl_424'
p1464
(lp1465
sS'appl_425'
p1466
(lp1467
sS'appl_426'
p1468
(lp1469
sS'appl_427'
p1470
(lp1471
sS'appl_420'
p1472
(lp1473
sS'appl_421'
p1474
(lp1475
sS'appl_422'
p1476
(lp1477
sS'appl_423'
p1478
(lp1479
sS'appl_917'
p1480
(lp1481
sS'appl_847'
p1482
(lp1483
sS'appl_886'
p1484
(lp1485
sS'appl_768'
p1486
(lp1487
sS'appl_887'
p1488
(lp1489
sS'appl_389'
p1490
(lp1491
sS'appl_548'
p1492
(lp1493
sS'appl_556'
p1494
(lp1495
sS'appl_388'
p1496
(lp1497
sS'appl_822'
p1498
(lp1499
sS'appl_557'
p1500
(lp1501
sS'appl_844'
p1502
(lp1503
sS'appl_109'
p1504
(lp1505
sS'appl_108'
p1506
(lp1507
sS'appl_107'
p1508
(lp1509
sS'appl_106'
p1510
(lp1511
sS'appl_105'
p1512
(lp1513
sS'appl_104'
p1514
(lp1515
sS'appl_103'
p1516
(lp1517
sS'appl_102'
p1518
(lp1519
sS'appl_101'
p1520
(lp1521
sS'appl_100'
p1522
(lp1523
sS'appl_639'
p1524
(lp1525
sS'appl_638'
p1526
(lp1527
sS'appl_880'
p1528
(lp1529
sS'appl_631'
p1530
(lp1531
sS'appl_630'
p1532
(lp1533
sS'appl_633'
p1534
(lp1535
sS'appl_632'
p1536
(lp1537
sS'appl_635'
p1538
(lp1539
sS'appl_634'
p1540
(lp1541
sS'appl_637'
p1542
(lp1543
sS'appl_636'
p1544
(lp1545
sS'appl_8'
p1546
(lp1547
g40
ag41
asS'appl_9'
p1548
(lp1549
g41
ag43
ag37
ag40
asS'appl_325'
p1550
(lp1551
sS'appl_324'
p1552
(lp1553
sS'appl_323'
p1554
(lp1555
sS'appl_322'
p1556
(lp1557
sS'appl_321'
p1558
(lp1559
sS'appl_320'
p1560
(lp1561
sS'appl_0'
p1562
(lp1563
g43
asS'appl_1'
p1564
(lp1565
g42
asS'appl_2'
p1566
(lp1567
g42
ag41
asS'appl_3'
p1568
(lp1569
g37
ag43
asS'appl_4'
p1570
(lp1571
g42
ag43
ag37
asS'appl_5'
p1572
(lp1573
g40
ag41
ag43
asS'appl_6'
p1574
(lp1575
g40
ag42
asS'appl_7'
p1576
(lp1577
g43
ag42
ag41
asS'appl_926'
p1578
(lp1579
sS'appl_558'
p1580
(lp1581
sS'appl_559'
p1582
(lp1583
sS'appl_92'
p1584
(lp1585
sS'appl_93'
p1586
(lp1587
sS'appl_90'
p1588
(lp1589
sS'appl_91'
p1590
(lp1591
sS'appl_96'
p1592
(lp1593
sS'appl_97'
p1594
(lp1595
sS'appl_94'
p1596
(lp1597
sS'appl_95'
p1598
(lp1599
sS'appl_98'
p1600
(lp1601
sS'appl_99'
p1602
(lp1603
sS'appl_996'
p1604
(lp1605
sS'appl_566'
p1606
(lp1607
sS'appl_554'
p1608
(lp1609
sS'appl_555'
p1610
(lp1611
sS'appl_259'
p1612
(lp1613
sS'appl_258'
p1614
(lp1615
sS'appl_550'
p1616
(lp1617
sS'appl_551'
p1618
(lp1619
sS'appl_552'
p1620
(lp1621
sS'appl_553'
p1622
(lp1623
sS'appl_253'
p1624
(lp1625
sS'appl_252'
p1626
(lp1627
sS'appl_251'
p1628
(lp1629
sS'appl_250'
p1630
(lp1631
sS'appl_257'
p1632
(lp1633
sS'appl_256'
p1634
(lp1635
sS'appl_255'
p1636
(lp1637
sS'appl_254'
p1638
(lp1639
sS'appl_948'
p1640
(lp1641
sS'appl_369'
p1642
(lp1643
sS'appl_368'
p1644
(lp1645
sS'appl_932'
p1646
(lp1647
sS'appl_990'
p1648
(lp1649
sS'appl_960'
p1650
(lp1651
sS'appl_933'
p1652
(lp1653
sS'appl_991'
p1654
(lp1655
sS'appl_811'
p1656
(lp1657
sS'appl_810'
p1658
(lp1659
sS'appl_813'
p1660
(lp1661
sS'appl_812'
p1662
(lp1663
sS'appl_815'
p1664
(lp1665
sS'appl_645'
p1666
(lp1667
sS'appl_817'
p1668
(lp1669
sS'appl_816'
p1670
(lp1671
sS'appl_819'
p1672
(lp1673
sS'appl_367'
p1674
(lp1675
sS'appl_952'
p1676
(lp1677
sS'appl_953'
p1678
(lp1679
sS'appl_954'
p1680
(lp1681
sS'appl_616'
p1682
(lp1683
sS'appl_956'
p1684
(lp1685
sS'appl_366'
p1686
(lp1687
sS'appl_987'
p1688
(lp1689
sS'appl_712'
p1690
(lp1691
sS'appl_992'
p1692
(lp1693
sS'appl_986'
p1694
(lp1695
sS'appl_985'
p1696
(lp1697
sS'appl_176'
p1698
(lp1699
sS'appl_177'
p1700
(lp1701
sS'appl_174'
p1702
(lp1703
sS'appl_175'
p1704
(lp1705
sS'appl_172'
p1706
(lp1707
sS'appl_173'
p1708
(lp1709
sS'appl_170'
p1710
(lp1711
sS'appl_171'
p1712
(lp1713
sS'appl_983'
p1714
(lp1715
sS'appl_178'
p1716
(lp1717
sS'appl_179'
p1718
(lp1719
sS'appl_713'
p1720
(lp1721
sS'appl_981'
p1722
(lp1723
sS'appl_980'
p1724
(lp1725
sS'appl_626'
p1726
(lp1727
sS'appl_627'
p1728
(lp1729
sS'appl_624'
p1730
(lp1731
sS'appl_936'
p1732
(lp1733
sS'appl_625'
p1734
(lp1735
sS'appl_622'
p1736
(lp1737
sS'appl_623'
p1738
(lp1739
sS'appl_675'
p1740
(lp1741
sS'appl_674'
p1742
(lp1743
sS'appl_677'
p1744
(lp1745
sS'appl_676'
p1746
(lp1747
sS'appl_671'
p1748
(lp1749
sS'appl_620'
p1750
(lp1751
sS'appl_673'
p1752
(lp1753
sS'appl_672'
p1754
(lp1755
sS'appl_774'
p1756
(lp1757
sS'appl_775'
p1758
(lp1759
sS'appl_776'
p1760
(lp1761
sS'appl_621'
p1762
(lp1763
sS'appl_679'
p1764
(lp1765
sS'appl_678'
p1766
(lp1767
sS'appl_772'
p1768
(lp1769
sS'appl_773'
p1770
(lp1771
sS'appl_473'
p1772
(lp1773
sS'appl_472'
p1774
(lp1775
sS'appl_471'
p1776
(lp1777
sS'appl_470'
p1778
(lp1779
sS'appl_477'
p1780
(lp1781
sS'appl_476'
p1782
(lp1783
sS'appl_475'
p1784
(lp1785
sS'appl_474'
p1786
(lp1787
sS'appl_479'
p1788
(lp1789
sS'appl_478'
p1790
(lp1791
sS'appl_56'
p1792
(lp1793
g40
ag41
ag42
ag37
asS'appl_57'
p1794
(lp1795
g43
ag41
asS'appl_54'
p1796
(lp1797
g40
ag43
ag37
asS'appl_55'
p1798
(lp1799
g41
ag43
ag40
ag42
asS'appl_52'
p1800
(lp1801
g43
ag40
asS'appl_53'
p1802
(lp1803
g41
asS'appl_50'
p1804
(lp1805
g41
ag40
ag43
asS'appl_51'
p1806
(lp1807
g37
ag42
asS'appl_58'
p1808
(lp1809
g37
ag43
ag41
asS'appl_59'
p1810
(lp1811
g40
ag37
ag42
asS'appl_657'
p1812
(lp1813
sS'appl_656'
p1814
(lp1815
sS'appl_646'
p1816
(lp1817
sS'appl_655'
p1818
(lp1819
sS'appl_590'
p1820
(lp1821
sS'appl_591'
p1822
(lp1823
sS'appl_592'
p1824
(lp1825
sS'appl_593'
p1826
(lp1827
sS'appl_594'
p1828
(lp1829
sS'appl_595'
p1830
(lp1831
sS'appl_596'
p1832
(lp1833
sS'appl_597'
p1834
(lp1835
sS'appl_598'
p1836
(lp1837
sS'appl_599'
p1838
(lp1839
sS'appl_652'
p1840
(lp1841
sS'appl_217'
p1842
(lp1843
sS'appl_216'
p1844
(lp1845
sS'appl_215'
p1846
(lp1847
sS'appl_214'
p1848
(lp1849
sS'appl_213'
p1850
(lp1851
sS'appl_212'
p1852
(lp1853
sS'appl_211'
p1854
(lp1855
sS'appl_210'
p1856
(lp1857
sS'appl_356'
p1858
(lp1859
sS'appl_357'
p1860
(lp1861
sS'appl_354'
p1862
(lp1863
sS'appl_355'
p1864
(lp1865
sS'appl_352'
p1866
(lp1867
sS'appl_353'
p1868
(lp1869
sS'appl_219'
p1870
(lp1871
sS'appl_218'
p1872
(lp1873
sS'appl_613'
p1874
(lp1875
sS'appl_288'
p1876
(lp1877
sS'appl_289'
p1878
(lp1879
sS'appl_284'
p1880
(lp1881
sS'appl_285'
p1882
(lp1883
sS'appl_286'
p1884
(lp1885
sS'appl_287'
p1886
(lp1887
sS'appl_280'
p1888
(lp1889
sS'appl_281'
p1890
(lp1891
sS'appl_282'
p1892
(lp1893
sS'appl_283'
p1894
(lp1895
sS'appl_955'
p1896
(lp1897
sS'appl_825'
p1898
(lp1899
sS'appl_612'
p1900
(lp1901
sS'appl_509'
p1902
(lp1903
sS'appl_508'
p1904
(lp1905
sS'appl_859'
p1906
(lp1907
sS'appl_858'
p1908
(lp1909
sS'appl_503'
p1910
(lp1911
sS'appl_502'
p1912
(lp1913
sS'appl_501'
p1914
(lp1915
sS'appl_500'
p1916
(lp1917
sS'appl_507'
p1918
(lp1919
sS'appl_506'
p1920
(lp1921
sS'appl_505'
p1922
(lp1923
sS'appl_504'
p1924
(lp1925
sS'appl_914'
p1926
(lp1927
sS'appl_915'
p1928
(lp1929
sS'appl_699'
p1930
(lp1931
sS'appl_698'
p1932
(lp1933
sS'appl_910'
p1934
(lp1935
sS'appl_911'
p1936
(lp1937
sS'appl_912'
p1938
(lp1939
sS'appl_913'
p1940
(lp1941
sS'appl_693'
p1942
(lp1943
sS'appl_692'
p1944
(lp1945
sS'appl_691'
p1946
(lp1947
sS'appl_690'
p1948
(lp1949
sS'appl_697'
p1950
(lp1951
sS'appl_696'
p1952
(lp1953
sS'appl_695'
p1954
(lp1955
sS'appl_694'
p1956
(lp1957
sS'appl_718'
p1958
(lp1959
sS'appl_719'
p1960
(lp1961
sS'appl_968'
p1962
(lp1963
sS'appl_958'
p1964
(lp1965
sS'appl_884'
p1966
(lp1967
sS'appl_959'
p1968
(lp1969
sS'appl_930'
p1970
(lp1971
sS'appl_814'
p1972
(lp1973
sS'appl_828'
p1974
(lp1975
sS'appl_446'
p1976
(lp1977
sS'appl_447'
p1978
(lp1979
sS'appl_820'
p1980
(lp1981
sS'appl_821'
p1982
(lp1983
sS'appl_617'
p1984
(lp1985
sS'appl_823'
p1986
(lp1987
sS'appl_824'
p1988
(lp1989
sS'appl_444'
p1990
(lp1991
sS'appl_826'
p1992
(lp1993
sS'appl_827'
p1994
(lp1995
sS'appl_950'
p1996
(lp1997
sS'appl_445'
p1998
(lp1999
sS'appl_818'
p2000
(lp2001
sS'appl_442'
p2002
(lp2003
sS'appl_443'
p2004
(lp2005
s.