(dp0
S'appl_1068'
p1
(lp2
S'Pennsylvania Hospital of the University of Pennsylvania Health System Program'
p3
aS'University of Massachusetts Program'
p4
aS'University of Texas Health Science Center at Houston Program'
p5
aS'University of Virginia Program'
p6
aS'University of Vermont Medical Center Program'
p7
asS'appl_1069'
p8
(lp9
S'New York Presbyterian Hospital (Cornell Campus) Program'
p10
aS'Hofstra Northwell School of Medicine at Lenox Hill Hospital Program'
p11
aS'University of Chicago Program'
p12
aS'University of Tennessee Medical Center at Knoxville Program'
p13
aS'University of Missouri-Columbia Program'
p14
aS'Henry Ford Hospital/Wayne State University Program'
p15
aS'Loyola University Program'
p16
asS'appl_1062'
p17
(lp18
S'East Tennessee State University Program'
p19
aS'Georgetown University Hospital Program'
p20
aS'University of Alabama Medical Center Program'
p21
asS'appl_1063'
p22
(lp23
S'St Barnabas Medical Center Program'
p24
aS'Montefiore Medical Center/Albert Einstein College of Medicine Program'
p25
aS'University of Florida Program'
p26
asS'appl_1060'
p27
(lp28
S'Rutgers Robert Wood Johnson Medical School Program'
p29
aS'Baylor College of Medicine Program'
p30
asS'appl_1061'
p31
(lp32
S'University of North Carolina Hospitals Program'
p33
aS'Emory University Program'
p34
aS'Drexel University College of Medicine/Hahnemann University Hospital Program'
p35
asS'appl_1066'
p36
(lp37
S'University of Illinois College of Medicine at Chicago Program'
p38
ag6
asS'appl_1067'
p39
(lp40
S'Detroit Medical Center/Wayne State University Program'
p41
asS'appl_1064'
p42
(lp43
S'Oregon Health & Science University Program'
p44
aS'Louisiana State University (Shreveport) Program'
p45
aS'Jackson Memorial Hospital/Jackson Health System Program'
p46
aS'University of Southern California/LAC+USC Medical Center Program'
p47
aS'University of Rochester Program'
p48
ag11
asS'appl_1065'
p49
(lp50
g25
aS'Yale-New Haven Medical Center Program'
p51
asS'appl_441'
p52
(lp53
S'Boston University Medical Center Program'
p54
aS'New York Presbyterian Hospital (Columbia Campus) Program'
p55
ag6
aS'Cedars-Sinai Medical Center Program'
p56
asS'appl_69'
p57
(lp58
sS'appl_68'
p59
(lp60
g41
aS'Icahn School of Medicine at Mount Sinai Program'
p61
aS'Stony Brook Medicine/University Hospital Program'
p62
asS'appl_67'
p63
(lp64
S'McGaw Medical Center of Northwestern University Program'
p65
aS'Tufts Medical Center Program'
p66
aS'Penn State Milton S Hershey Medical Center Program'
p67
ag26
asS'appl_66'
p68
(lp69
g14
aS'University of Puerto Rico Program'
p70
aS'University of South Dakota Program'
p71
aS'Creighton University Program'
p72
asS'appl_65'
p73
(lp74
S'New York University School of Medicine Program'
p75
asS'appl_64'
p76
(lp77
S'Stanford University Program'
p78
aS"Brigham and Women's Hospital Program"
p79
ag45
asS'appl_63'
p80
(lp81
g26
aS'University of New Mexico Program'
p82
aS'University at Buffalo Program'
p83
aS'University of California (Davis) Health System Program'
p84
aS'Duke University Hospital Program'
p85
aS'University of Maryland Program'
p86
aS'University of Colorado Program'
p87
asS'appl_62'
p88
(lp89
S'Hofstra Northwell School of Medicine at Staten Island University Hospital Program'
p90
aS'University of Texas Southwestern Medical School Program'
p91
aS'Summa Health System/NEOMED Program'
p92
aS'University of Nebraska Medical Center College of Medicine Program'
p93
ag65
aS'Case Western Reserve University/University Hospitals Cleveland Medical Center Program'
p94
ag29
ag67
asS'appl_61'
p95
(lp96
g16
asS'appl_60'
p97
(lp98
S'Medical College of Georgia Program'
p99
ag30
aS'University of Toledo Program'
p100
asS'appl_1231'
p101
(lp102
S'Hartford Hospital Program'
p103
aS'Icahn School of Medicine at Mount Sinai/St Luke\xe2\x80\x99s-Roosevelt Hospital Center Program'
p104
aS'Mount Sinai Medical Center of Florida Program'
p105
ag38
asS'appl_1230'
p106
(lp107
g75
aS'University of Kansas School of Medicine Program'
p108
asS'appl_1479'
p109
(lp110
S'UPMC Medical Education Program'
p111
aS'Winthrop-University Hospital Program'
p112
aS'Rutgers New Jersey Medical School Program'
p113
asS'appl_1478'
p114
(lp115
g72
ag3
aS'Los Angeles County-Harbor-UCLA Medical Center Program'
p116
ag113
aS'National Institutes of Health Clinical Center Program'
p117
aS'University of Kentucky College of Medicine Program'
p118
ag45
ag62
aS'UCLA Medical Center Program'
p119
asS'appl_1475'
p120
(lp121
S'Loma Linda University Health Education Consortium Program'
p122
ag55
aS'St Louis University School of Medicine Program'
p123
aS'Wake Forest University School of Medicine Program'
p124
asS'appl_1474'
p125
(lp126
S'Case Western Reserve University (MetroHealth) Program'
p127
ag66
asS'appl_1477'
p128
(lp129
g44
ag35
aS'Texas Tech University (Lubbock) Program'
p130
ag4
aS'University of South Florida Morsani Program'
p131
aS'SUNY Health Science Center at Brooklyn Program'
p132
asS'appl_1476'
p133
(lp134
g29
aS'University of Iowa Hospitals and Clinics Program'
p135
ag7
ag82
asS'appl_1471'
p136
(lp137
S'University of Texas Health Science Center School of Medicine at San Antonio Program'
p138
ag90
aS'University of Texas Medical Branch Hospitals Program'
p139
asS'appl_1470'
p140
(lp141
S'University of Arizona Program'
p142
ag19
ag85
aS'Indiana University School of Medicine Program'
p143
ag112
aS'Beth Israel Deaconess Medical Center/Harvard Medical School Program'
p144
asS'appl_1473'
p145
(lp146
S'SUNY Upstate Medical University Program'
p147
ag62
ag16
ag54
ag113
ag7
ag72
ag71
asS'appl_1472'
p148
(lp149
g3
aS'University of California (San Francisco) Program'
p150
ag6
ag143
asS'appl_570'
p151
(lp152
g103
aS'UMMS-Baystate Program'
p153
ag70
asS'appl_571'
p154
(lp155
g62
ag131
aS'University of Cincinnati Medical Center/College of Medicine Program'
p156
ag143
ag92
ag13
ag111
asS'appl_1107'
p157
(lp158
S'Massachusetts General Hospital Program'
p159
ag93
aS'University of Utah Program'
p160
ag108
aS'Brown University Program'
p161
ag83
ag65
asS'appl_1106'
p162
(lp163
g72
ag105
aS'William Beaumont Hospital Program'
p164
ag92
aS'Allegheny Health Network Medical Education Consortium (AGH) Program'
p165
ag70
ag12
ag15
asS'appl_1501'
p166
(lp167
S'University of Washington Program'
p168
ag71
asS'appl_1500'
p169
(lp170
g168
aS'University of South Alabama Program'
p171
aS'Vanderbilt University Medical Center Program'
p172
asS'appl_1503'
p173
(lp174
g25
ag34
ag19
ag72
ag41
aS'Johns Hopkins University Program'
p175
ag15
asS'appl_1502'
p176
(lp177
g67
ag85
ag41
aS'Hofstra Northwell School of Medicine Program'
p178
ag38
aS"St Joseph's Hospital and Medical Center Program"
p179
ag144
asS'appl_1505'
p180
(lp181
S'Texas A&M College of Medicine-Scott and White Program'
p182
ag10
aS'University of Chicago (NorthShore) Program'
p183
ag26
ag21
ag72
asS'appl_1504'
p184
(lp185
g112
aS'Rush University Medical Center Program'
p186
ag143
ag41
asS'appl_1507'
p187
(lp188
g90
asS'appl_1506'
p189
(lp190
S'University of Michigan Program'
p191
ag130
aS'Temple University Hospital Program'
p192
ag124
ag82
asS'appl_1509'
p193
(lp194
g10
ag182
ag178
ag7
aS'University of Pennsylvania Program'
p195
ag99
ag191
asS'appl_1508'
p196
(lp197
g171
ag130
aS'University of California (San Diego) Program'
p198
asS'appl_1109'
p199
(lp200
g127
ag159
ag55
ag61
asS'appl_1108'
p201
(lp202
S'Medical University of South Carolina Program'
p203
ag182
aS'University of Arkansas for Medical Sciences Program'
p204
aS'Thomas Jefferson University Program'
p205
ag83
asS'appl_194'
p206
(lp207
S'University of Wisconsin Program'
p208
ag30
ag14
ag172
ag150
ag5
ag78
asS'appl_195'
p209
(lp210
g191
ag45
asS'appl_196'
p211
(lp212
g67
ag90
ag45
asS'appl_197'
p213
(lp214
g86
aS'University of Louisville Program'
p215
ag71
ag144
asS'appl_190'
p216
(lp217
g122
ag191
ag144
ag24
ag33
aS'Brookwood Baptist Health Program'
p218
asS'appl_191'
p219
(lp220
S'Baylor University Medical Center Program'
p221
ag84
ag20
aS'University of California (Irvine) Program'
p222
asS'appl_440'
p223
(lp224
S'Howard University Program'
p225
ag47
ag99
ag56
ag30
ag117
asS'appl_193'
p226
(lp227
g144
ag179
ag108
aS'Methodist Hospital (Houston) Program'
p228
ag38
ag70
asS'appl_198'
p229
(lp230
g164
ag71
aS'University of Florida College of Medicine Jacksonville Program'
p231
ag119
ag93
aS'Virginia Commonwealth University Health System Program'
p232
ag91
asS'appl_199'
p233
(lp234
g218
ag118
ag14
ag87
asS'appl_448'
p235
(lp236
g113
ag46
ag93
aS'Medical College of Wisconsin Affiliated Hospitals Program'
p237
asS'appl_449'
p238
(lp239
g178
ag75
aS'Danbury Hospital Program'
p240
aS'Washington University/B-JH/SLCH Consortium Program'
p241
aS'New York Medical College at Westchester Medical Center Program'
p242
ag85
asS'appl_228'
p243
(lp244
g111
ag46
ag231
ag54
ag11
asS'appl_229'
p245
(lp246
g175
ag117
ag231
ag61
asS'appl_998'
p247
(lp248
g131
ag175
ag82
asS'appl_999'
p249
(lp250
g123
ag14
ag41
ag191
ag111
ag33
ag71
ag241
asS'appl_994'
p251
(lp252
g112
asS'appl_995'
p253
(lp254
g20
ag103
ag90
ag138
ag113
asS'appl_220'
p255
(lp256
g147
asS'appl_221'
p257
(lp258
g10
ag105
asS'appl_226'
p259
(lp260
g116
ag75
ag34
asS'appl_227'
p261
(lp262
S'Cleveland Clinic Foundation Program'
p263
ag131
ag93
asS'appl_224'
p264
(lp265
g66
aS'Nassau University Medical Center Program'
p266
asS'appl_993'
p267
(lp268
g75
aS'George Washington University Program'
p269
asS'appl_1277'
p270
(lp271
S'Louisiana State University Program'
p272
aS'Mayo Clinic College of Medicine and Science (Rochester) Program'
p273
ag104
ag225
ag78
ag46
asS'appl_1276'
p274
(lp275
g124
ag228
ag25
ag103
asS'appl_1275'
p276
(lp277
g54
ag65
aS'University of Minnesota Program'
p278
ag117
aS'St John Hospital and Medical Center Program'
p279
asS'appl_1274'
p280
(lp281
g150
ag41
ag4
ag272
asS'appl_1273'
p282
(lp283
g222
ag164
ag205
ag150
ag138
aS'Penrose-St Francis Health Services Program'
p284
ag91
asS'appl_1272'
p285
(lp286
S'Vidant Medical Center/East Carolina University Program'
p287
ag228
asS'appl_538'
p288
(lp289
g94
ag70
ag225
asS'appl_539'
p290
(lp291
g263
aS'University of Oklahoma Health Sciences Center Program'
p292
ag237
ag278
aS'Tulane University Program'
p293
asS'appl_536'
p294
(lp295
g72
ag192
ag41
ag15
ag11
asS'appl_537'
p296
(lp297
g119
ag231
ag124
asS'appl_534'
p298
(lp299
g263
ag116
ag241
ag84
ag15
ag65
ag204
asS'appl_535'
p300
(lp301
sS'appl_532'
p302
(lp303
g26
ag66
ag132
ag142
ag231
asS'appl_533'
p304
(lp305
g118
ag272
ag78
ag205
asS'appl_530'
p306
(lp307
g85
aS'University of Mississippi Medical Center Program'
p308
ag175
ag241
ag44
ag45
ag100
ag47
asS'appl_531'
p309
(lp310
g108
ag292
ag287
asS'appl_1189'
p311
(lp312
g241
ag41
asS'appl_1188'
p313
(lp314
g160
ag178
ag195
ag72
asS'appl_1185'
p315
(lp316
g86
ag195
ag205
asS'appl_1184'
p317
(lp318
g61
ag139
ag284
asS'appl_1187'
p319
(lp320
g272
asS'appl_1186'
p321
(lp322
g67
aS'West Virginia University Program'
p323
ag232
ag142
asS'appl_1181'
p324
(lp325
g99
ag78
ag144
ag323
asS'appl_1180'
p326
(lp327
g156
ag143
ag284
asS'appl_1183'
p328
(lp329
g5
ag287
ag221
ag26
asS'appl_1182'
p330
(lp331
g218
ag292
ag215
ag72
ag38
asS'appl_1059'
p332
(lp333
g263
ag179
ag26
asS'appl_1058'
p334
(lp335
g269
ag172
ag55
asS'appl_1057'
p336
(lp337
g79
ag231
ag122
asS'appl_1056'
p338
(lp339
g160
ag67
ag47
ag103
ag108
ag171
ag54
ag192
asS'appl_1055'
p340
(lp341
g30
ag192
ag240
ag142
asS'appl_1054'
p342
(lp343
g71
ag21
ag273
ag222
asS'appl_1053'
p344
(lp345
g6
ag70
ag65
ag78
ag86
ag150
ag119
ag191
ag240
asS'appl_1052'
p346
(lp347
g15
ag272
ag198
ag56
asS'appl_1051'
p348
(lp349
g87
ag119
ag266
ag240
asS'appl_1050'
p350
(lp351
g287
ag228
ag33
ag104
ag54
ag100
ag195
asS'appl_428'
p352
(lp353
g14
ag116
ag231
asS'appl_78'
p354
(lp355
g287
ag51
ag232
asS'appl_79'
p356
(lp357
g221
ag54
ag195
ag269
asS'appl_74'
p358
(lp359
g159
ag13
ag111
ag231
ag135
ag308
ag12
ag47
ag147
ag72
asS'appl_75'
p360
(lp361
g99
ag269
ag228
ag91
ag70
asS'appl_76'
p362
(lp363
g91
ag99
ag94
asS'appl_77'
p364
(lp365
g231
ag172
ag91
ag127
ag45
asS'appl_70'
p366
(lp367
g203
ag54
ag127
ag221
aS'Albany Medical Center Program'
p368
asS'appl_71'
p369
(lp370
g111
ag138
asS'appl_72'
p371
(lp372
g7
ag203
ag195
ag142
ag46
ag156
ag122
ag20
ag55
asS'appl_73'
p373
(lp374
g263
ag61
asS'appl_1468'
p375
(lp376
S'University of Tennessee Program'
p377
ag122
ag138
ag67
ag192
ag12
asS'appl_1469'
p378
(lp379
g105
ag82
ag90
aS'University of Missouri at Kansas City Program'
p380
ag287
ag198
asS'appl_1466'
p381
(lp382
g183
ag178
ag156
ag4
ag83
asS'appl_1467'
p383
(lp384
g232
ag222
ag113
asS'appl_1464'
p385
(lp386
g24
ag273
ag11
ag147
ag29
ag228
ag93
ag25
ag272
ag48
ag92
asS'appl_1465'
p387
(lp388
sS'appl_1462'
p389
(lp390
g6
ag84
ag198
asS'appl_1463'
p391
(lp392
g293
ag132
ag161
ag10
asS'appl_1460'
p393
(lp394
g156
ag269
asS'appl_1461'
p395
(lp396
S'Dartmouth-Hitchcock Medical Center Program'
p397
ag195
ag292
ag171
asS'appl_1512'
p398
(lp399
g278
ag41
ag205
ag165
ag30
ag221
asS'appl_1513'
p400
(lp401
g86
ag147
ag208
ag161
ag292
asS'appl_1510'
p402
(lp403
g222
ag72
ag273
asS'appl_1511'
p404
(lp405
g83
ag130
asS'appl_1516'
p406
(lp407
g179
asS'appl_1517'
p408
(lp409
g397
ag269
ag323
ag38
asS'appl_1514'
p410
(lp411
g30
ag112
asS'appl_1515'
p412
(lp413
g93
ag228
ag273
ag165
ag215
ag164
ag70
ag172
ag72
asS'appl_1518'
p414
(lp415
g186
ag30
asS'appl_1519'
p416
(lp417
g191
asS'appl_459'
p418
(lp419
g12
ag112
ag279
ag79
asS'appl_458'
p420
(lp421
g119
ag231
ag123
ag165
ag35
asS'appl_451'
p422
(lp423
g34
asS'appl_450'
p424
(lp425
g323
ag16
ag225
asS'appl_453'
p426
(lp427
g225
ag143
aS'Orlando Health Program'
p428
ag287
ag6
ag10
ag84
asS'appl_452'
p429
(lp430
g172
asS'appl_455'
p431
(lp432
g94
ag82
ag44
ag62
ag48
ag165
asS'appl_454'
p433
(lp434
g284
ag272
ag287
ag198
ag228
ag205
asS'appl_457'
p435
(lp436
g186
ag20
ag323
ag72
ag112
asS'appl_456'
p437
(lp438
S'University of Hawaii Program'
p439
ag119
ag161
ag269
ag204
asS'appl_187'
p440
(lp441
g45
ag231
ag308
ag65
asS'appl_186'
p442
(lp443
g34
ag67
asS'appl_185'
p444
(lp445
g172
ag46
ag112
ag279
ag34
ag175
ag139
ag308
asS'appl_184'
p446
(lp447
g272
ag142
ag160
ag12
ag5
asS'appl_183'
p448
(lp449
g191
ag93
ag51
ag4
ag56
ag195
ag38
asS'appl_182'
p450
(lp451
g38
ag92
ag323
ag118
ag231
ag44
asS'appl_181'
p452
(lp453
g51
ag94
asS'appl_180'
p454
(lp455
g66
ag48
ag127
ag175
asS'appl_189'
p456
(lp457
g172
ag156
ag397
ag273
ag183
asS'appl_188'
p458
(lp459
g159
ag222
asS'appl_239'
p460
(lp461
g71
asS'appl_238'
p462
(lp463
g241
ag266
ag308
ag5
ag221
ag75
ag104
asS'appl_989'
p464
(lp465
g15
ag86
ag44
ag3
asS'appl_988'
p466
(lp467
g160
ag279
asS'appl_235'
p468
(lp469
g130
ag119
ag241
asS'appl_234'
p470
(lp471
g105
ag292
ag278
ag164
ag4
asS'appl_237'
p472
(lp473
g10
ag377
ag278
ag292
asS'appl_236'
p474
(lp475
g87
ag3
ag191
ag192
asS'appl_231'
p476
(lp477
g56
ag160
asS'appl_230'
p478
(lp479
g273
ag397
asS'appl_233'
p480
(lp481
g323
ag103
ag83
ag19
ag380
ag215
ag428
asS'appl_232'
p482
(lp483
g203
ag208
ag191
asS'appl_1268'
p484
(lp485
g171
ag192
ag218
asS'appl_1269'
p486
(lp487
g172
ag178
ag179
ag10
ag7
ag117
ag65
asS'appl_1260'
p488
(lp489
g34
ag142
asS'appl_1261'
p490
(lp491
g30
ag279
ag266
ag284
ag26
ag293
asS'appl_1262'
p492
(lp493
g29
ag156
ag87
ag33
ag195
ag3
asS'appl_1263'
p494
(lp495
g87
ag93
ag84
ag75
ag323
asS'appl_1264'
p496
(lp497
g203
ag25
asS'appl_1265'
p498
(lp499
g279
ag87
ag66
asS'appl_1266'
p500
(lp501
g165
ag323
ag48
ag225
asS'appl_1267'
p502
(lp503
sS'appl_521'
p504
(lp505
g263
ag20
asS'appl_520'
p506
(lp507
g103
ag105
ag143
ag61
ag182
ag62
ag279
asS'appl_523'
p508
(lp509
g66
ag78
ag279
ag65
asS'appl_522'
p510
(lp511
g368
ag222
ag118
ag172
ag397
asS'appl_525'
p512
(lp513
g198
ag273
ag86
ag84
asS'appl_524'
p514
(lp515
g78
ag164
ag228
ag284
asS'appl_527'
p516
(lp517
g66
ag82
ag5
asS'appl_526'
p518
(lp519
g4
ag122
ag83
ag54
ag131
asS'appl_529'
p520
(lp521
g48
ag118
ag15
ag124
ag138
asS'appl_528'
p522
(lp523
g272
ag142
ag131
ag273
ag225
ag179
asS'appl_1198'
p524
(lp525
g16
ag12
ag14
ag153
ag175
ag323
ag186
asS'appl_1199'
p526
(lp527
g222
ag116
ag159
ag10
ag35
asS'appl_1196'
p528
(lp529
g138
ag123
ag323
ag26
asS'appl_1197'
p530
(lp531
S'Ohio State University Hospital Program'
p532
ag15
ag182
asS'appl_1194'
p533
(lp534
g183
ag14
ag24
ag186
ag38
ag56
ag143
ag70
asS'appl_1195'
p535
(lp536
g103
ag124
ag368
ag278
asS'appl_1192'
p537
(lp538
g13
ag195
ag165
ag142
asS'appl_1193'
p539
(lp540
g532
ag127
asS'appl_1190'
p541
(lp542
g6
ag377
ag122
ag240
ag13
ag75
asS'appl_1191'
p543
(lp544
g153
ag6
ag34
ag112
asS'appl_1040'
p545
(lp546
g112
ag397
ag10
ag66
ag51
ag21
ag55
ag127
ag192
ag232
ag94
asS'appl_1041'
p547
(lp548
g19
ag16
ag164
ag380
ag130
asS'appl_1042'
p549
(lp550
g132
ag272
ag4
ag67
asS'appl_1043'
p551
(lp552
g221
ag269
ag203
ag160
ag266
ag16
asS'appl_1044'
p553
(lp554
g15
ag19
ag242
ag198
ag65
ag85
ag30
ag186
asS'appl_1045'
p555
(lp556
g45
ag263
ag143
ag147
ag48
asS'appl_1046'
p557
(lp558
g90
ag65
ag35
ag85
ag48
asS'appl_1047'
p559
(lp560
g204
ag368
ag46
ag208
asS'appl_1048'
p561
(lp562
g237
ag13
ag182
asS'appl_1049'
p563
(lp564
g178
ag228
ag205
ag113
ag123
asS'appl_49'
p565
(lp566
g204
ag266
ag377
ag26
asS'appl_48'
p567
(lp568
g119
ag10
ag269
asS'appl_41'
p569
(lp570
g308
ag380
asS'appl_40'
p571
(lp572
g269
ag93
ag66
ag10
ag132
ag228
asS'appl_43'
p573
(lp574
g131
ag150
ag292
ag179
ag41
asS'appl_42'
p575
(lp576
g198
ag3
ag222
ag171
asS'appl_45'
p577
(lp578
g26
ag94
ag11
ag105
asS'appl_44'
p579
(lp580
g87
ag183
ag242
ag215
asS'appl_47'
p581
(lp582
g222
ag139
ag240
ag94
ag55
ag215
asS'appl_46'
p583
(lp584
g147
ag138
ag71
ag278
asS'appl_1453'
p585
(lp586
g87
ag65
ag221
asS'appl_1452'
p587
(lp588
g85
ag171
ag75
ag428
ag45
asS'appl_1451'
p589
(lp590
g122
ag263
ag284
ag79
ag182
ag94
ag293
asS'appl_1450'
p591
(lp592
g208
ag165
ag105
ag178
ag292
asS'appl_1457'
p593
(lp594
g172
ag113
asS'appl_1456'
p595
(lp596
g56
ag113
ag13
ag159
asS'appl_1455'
p597
(lp598
g198
ag218
ag41
asS'appl_1454'
p599
(lp600
g48
ag118
ag138
ag139
ag287
ag153
asS'appl_1459'
p601
(lp602
g218
ag54
ag308
asS'appl_1458'
p603
(lp604
g3
ag323
ag139
ag135
ag54
ag222
asS'appl_1527'
p605
(lp606
g377
ag56
ag287
ag205
ag208
asS'appl_1526'
p607
(lp608
g287
ag198
ag113
ag222
asS'appl_1525'
p609
(lp610
g112
ag92
ag91
ag293
asS'appl_1524'
p611
(lp612
g269
ag11
ag266
ag62
ag19
asS'appl_1523'
p613
(lp614
g12
ag242
ag29
asS'appl_1522'
p615
(lp616
g75
ag71
ag85
ag90
ag29
ag164
asS'appl_1521'
p617
(lp618
g132
asS'appl_1520'
p619
(lp620
g439
ag108
ag279
ag104
ag397
asS'appl_1529'
p621
(lp622
g105
ag164
ag116
ag221
asS'appl_1528'
p623
(lp624
g4
ag29
asS'appl_841'
p625
(lp626
g218
ag123
asS'appl_846'
p627
(lp628
g182
ag118
ag242
asS'appl_140'
p629
(lp630
g293
ag132
ag108
asS'appl_429'
p631
(lp632
g164
ag65
ag127
asS'appl_424'
p633
(lp634
g78
ag198
ag123
ag122
ag225
asS'appl_425'
p635
(lp636
g4
ag99
ag293
asS'appl_426'
p637
(lp638
g225
ag142
asS'appl_427'
p639
(lp640
g113
ag111
ag130
asS'appl_420'
p641
(lp642
g172
ag228
asS'appl_421'
p643
(lp644
g222
ag54
ag165
ag143
asS'appl_422'
p645
(lp646
g112
ag6
asS'appl_423'
p647
(lp648
g225
ag85
ag113
ag116
asS'appl_847'
p649
(lp650
g78
ag144
ag215
asS'appl_554'
p651
(lp652
g3
ag172
ag156
ag178
ag4
ag175
asS'appl_1169'
p653
(lp654
g142
ag195
asS'appl_555'
p655
(lp656
g269
ag278
ag428
ag100
ag5
asS'appl_37'
p657
(lp658
g198
ag153
ag208
ag84
ag10
ag72
asS'appl_884'
p659
(lp660
g205
ag179
ag92
ag111
ag237
ag242
ag104
ag117
asS'appl_38'
p661
(lp662
g54
ag118
asS'appl_557'
p663
(lp664
g15
asS'appl_39'
p665
(lp666
g71
ag218
ag12
asS'appl_550'
p667
(lp668
g13
ag279
ag150
asS'appl_551'
p669
(lp670
g51
ag397
ag532
ag293
ag79
ag191
asS'appl_146'
p671
(lp672
g225
ag33
ag34
ag182
asS'appl_552'
p673
(lp674
g284
ag222
ag123
ag65
ag192
ag204
ag225
ag159
ag54
ag144
asS'appl_553'
p675
(lp676
g168
ag103
ag368
ag179
asS'appl_730'
p677
(lp678
g179
ag127
ag124
ag266
ag165
ag183
ag92
asS'appl_731'
p679
(lp680
g100
ag47
ag156
ag10
ag192
asS'appl_732'
p681
(lp682
g368
ag228
asS'appl_733'
p683
(lp684
g127
ag171
asS'appl_734'
p685
(lp686
g222
ag172
ag103
ag278
ag12
ag191
ag3
ag94
asS'appl_735'
p687
(lp688
g15
ag182
ag266
ag29
asS'appl_736'
p689
(lp690
g323
ag119
ag16
ag4
ag71
asS'appl_737'
p691
(lp692
g377
ag428
ag380
ag178
ag532
asS'appl_738'
p693
(lp694
g179
ag232
ag237
asS'appl_739'
p695
(lp696
g269
ag103
ag131
asS'appl_251'
p697
(lp698
g75
ag130
asS'appl_250'
p699
(lp700
g48
ag123
ag242
asS'appl_257'
p701
(lp702
g119
ag186
ag51
ag208
ag263
ag38
asS'appl_256'
p703
(lp704
g62
ag93
ag12
ag191
asS'appl_255'
p705
(lp706
g48
ag105
ag186
asS'appl_254'
p707
(lp708
g150
ag179
ag118
ag231
ag135
ag228
ag38
ag293
asS'appl_144'
p709
(lp710
g5
ag182
ag164
asS'appl_1219'
p711
(lp712
g44
ag116
ag308
asS'appl_1218'
p713
(lp714
g30
ag139
ag10
ag218
ag94
asS'appl_1215'
p715
(lp716
g278
ag90
ag15
ag161
asS'appl_1214'
p717
(lp718
g20
ag119
ag222
asS'appl_1217'
p719
(lp720
g104
ag171
asS'appl_1216'
p721
(lp722
g161
ag66
asS'appl_1211'
p723
(lp724
g266
ag87
ag92
ag112
asS'appl_1210'
p725
(lp726
g143
ag132
ag92
asS'appl_1213'
p727
(lp728
g111
ag153
ag67
ag377
ag25
asS'appl_1212'
p729
(lp730
g204
ag138
ag171
ag30
asS'appl_886'
p731
(lp732
g323
ag67
asS'appl_887'
p733
(lp734
g94
asS'appl_556'
p735
(lp736
g178
ag54
asS'appl_885'
p737
(lp738
g142
ag377
ag205
ag86
ag178
ag150
ag161
ag368
asS'appl_882'
p739
(lp740
g182
ag218
ag7
ag144
ag156
asS'appl_883'
p741
(lp742
g105
ag83
ag135
ag87
ag108
asS'appl_880'
p743
(lp744
g269
ag46
ag532
ag186
ag198
ag56
ag51
asS'appl_881'
p745
(lp746
g38
ag172
ag29
ag368
asS'appl_558'
p747
(lp748
g104
ag111
ag127
ag44
ag164
ag38
ag45
asS'appl_559'
p749
(lp750
g131
asS'appl_888'
p751
(lp752
g242
ag237
ag218
ag16
asS'appl_889'
p753
(lp754
g6
ag90
ag86
asS'appl_1321'
p755
(lp756
g45
asS'appl_1320'
p757
(lp758
g33
ag130
ag178
ag122
ag94
ag118
asS'appl_1323'
p759
(lp760
g186
ag138
ag30
asS'appl_1322'
p761
(lp762
g203
ag143
ag85
ag113
ag3
asS'appl_1325'
p763
(lp764
g237
asS'appl_1324'
p765
(lp766
g105
ag14
ag132
ag228
ag242
asS'appl_1327'
p767
(lp768
g222
ag41
ag171
asS'appl_1326'
p769
(lp770
g10
ag117
ag240
ag116
ag293
ag72
ag179
ag78
asS'appl_1329'
p771
(lp772
g150
ag179
ag132
ag118
ag164
ag138
asS'appl_1328'
p773
(lp774
g4
ag237
ag377
ag242
ag192
asS'appl_958'
p775
(lp776
g85
ag26
ag153
ag24
asS'appl_959'
p777
(lp778
g164
ag153
ag4
ag66
asS'appl_950'
p779
(lp780
g51
ag204
ag439
ag71
ag161
ag222
ag83
ag61
asS'appl_951'
p781
(lp782
g10
ag225
ag78
ag118
ag116
ag100
asS'appl_952'
p783
(lp784
g232
ag87
ag71
asS'appl_953'
p785
(lp786
g124
ag118
ag142
ag171
ag25
ag139
ag203
asS'appl_954'
p787
(lp788
g171
ag34
ag135
ag143
ag231
ag439
ag263
asS'appl_955'
p789
(lp790
g103
ag108
ag44
ag99
ag83
ag46
ag104
asS'appl_956'
p791
(lp792
g85
asS'appl_957'
p793
(lp794
g112
ag221
asS'appl_930'
p795
(lp796
g10
ag377
ag45
ag123
ag4
asS'appl_1035'
p797
(lp798
g119
ag100
ag92
ag94
ag278
ag439
asS'appl_1034'
p799
(lp800
g228
ag92
ag119
ag93
ag147
ag153
ag19
ag159
asS'appl_1037'
p801
(lp802
g263
ag130
ag198
ag139
asS'appl_1036'
p803
(lp804
g143
ag142
ag195
asS'appl_1031'
p805
(lp806
g91
ag83
ag161
ag79
ag41
ag172
ag135
asS'appl_1030'
p807
(lp808
g183
ag208
ag380
ag377
ag112
asS'appl_1033'
p809
(lp810
g90
asS'appl_1032'
p811
(lp812
g191
ag240
ag293
asS'appl_1039'
p813
(lp814
g14
ag292
ag380
ag116
ag240
asS'appl_1038'
p815
(lp816
g183
ag225
ag269
asS'appl_936'
p817
(lp818
g91
ag124
ag130
ag99
asS'appl_1149'
p819
(lp820
g5
ag79
ag439
ag123
ag144
ag279
ag198
asS'appl_1148'
p821
(lp822
g242
ag92
asS'appl_54'
p823
(lp824
g278
ag377
asS'appl_55'
p825
(lp826
g79
ag263
asS'appl_52'
p827
(lp828
g25
ag90
ag221
ag231
ag92
ag153
ag192
asS'appl_53'
p829
(lp830
g165
ag192
ag90
ag161
ag113
ag14
asS'appl_50'
p831
(lp832
g132
ag147
asS'appl_51'
p833
(lp834
g204
ag117
ag16
ag93
asS'appl_1141'
p835
(lp836
g172
ag127
ag218
ag139
ag93
ag14
ag161
ag186
ag123
ag65
ag144
asS'appl_1140'
p837
(lp838
g161
ag108
ag75
asS'appl_1143'
p839
(lp840
g272
asS'appl_1142'
p841
(lp842
g44
ag218
ag29
asS'appl_1145'
p843
(lp844
g104
ag75
ag153
ag208
ag111
ag103
asS'appl_1144'
p845
(lp846
g123
ag26
asS'appl_1147'
p847
(lp848
g26
ag105
ag192
asS'appl_1146'
p849
(lp850
g47
ag71
ag240
ag439
ag93
asS'appl_1444'
p851
(lp852
g153
ag377
ag428
ag135
asS'appl_1445'
p853
(lp854
g4
ag138
ag48
ag104
asS'appl_1446'
p855
(lp856
g130
ag117
ag83
ag377
ag66
ag266
asS'appl_1447'
p857
(lp858
g215
ag19
ag86
asS'appl_1440'
p859
(lp860
g78
ag272
ag532
asS'appl_1441'
p861
(lp862
g292
ag168
ag29
ag99
asS'appl_1442'
p863
(lp864
g75
ag14
ag79
asS'appl_1443'
p865
(lp866
g78
ag44
ag19
ag30
asS'appl_1448'
p867
(lp868
g54
ag13
ag25
ag16
ag79
asS'appl_1449'
p869
(lp870
g65
ag218
asS'appl_1538'
p871
(lp872
g130
ag139
ag323
ag222
ag25
asS'appl_1539'
p873
(lp874
g119
ag90
asS'appl_1530'
p875
(lp876
g272
ag90
ag123
asS'appl_1531'
p877
(lp878
g33
ag5
ag191
ag159
ag51
ag26
asS'appl_1532'
p879
(lp880
g46
ag215
ag111
ag70
ag191
ag119
ag100
ag78
asS'appl_1533'
p881
(lp882
g147
ag25
ag65
ag94
ag123
ag85
asS'appl_1534'
p883
(lp884
g142
ag215
ag192
asS'appl_1535'
p885
(lp886
g25
ag218
ag70
ag532
ag35
asS'appl_1536'
p887
(lp888
g168
asS'appl_1537'
p889
(lp890
g195
asS'appl_811'
p891
(lp892
g92
ag182
ag368
asS'appl_810'
p893
(lp894
g150
ag156
ag208
ag94
asS'appl_1284'
p895
(lp896
g143
ag222
asS'appl_1285'
p897
(lp898
g83
ag6
ag204
ag308
asS'appl_1282'
p899
(lp900
g159
ag113
ag51
asS'appl_814'
p901
(lp902
g86
ag203
ag92
asS'appl_446'
p903
(lp904
g237
ag44
ag218
ag231
ag208
ag70
ag72
ag142
ag33
asS'appl_1280'
p905
(lp906
g231
ag292
ag90
ag21
ag92
ag55
asS'appl_447'
p907
(lp908
g132
ag165
ag65
ag71
ag153
ag16
ag35
asS'appl_816'
p909
(lp910
g266
ag143
ag323
ag218
asS'appl_444'
p911
(lp912
g45
ag308
ag240
asS'appl_445'
p913
(lp914
g21
ag143
ag65
ag82
ag104
asS'appl_442'
p915
(lp916
g12
ag240
ag75
ag3
asS'appl_443'
p917
(lp918
g61
asS'appl_192'
p919
(lp920
g4
ag111
ag100
ag113
ag153
asS'appl_439'
p921
(lp922
g284
ag13
ag116
ag195
ag108
ag380
asS'appl_438'
p923
(lp924
g25
ag38
asS'appl_437'
p925
(lp926
g24
ag208
ag20
ag15
ag293
ag183
ag139
asS'appl_436'
p927
(lp928
g92
ag203
ag278
ag205
asS'appl_435'
p929
(lp930
g54
ag142
ag192
asS'appl_434'
p931
(lp932
g67
ag108
asS'appl_433'
p933
(lp934
g65
ag323
ag143
ag90
ag292
ag131
asS'appl_432'
p935
(lp936
g240
ag428
ag84
ag175
ag377
asS'appl_431'
p937
(lp938
g127
ag14
ag105
ag263
ag93
asS'appl_430'
p939
(lp940
g142
asS'appl_723'
p941
(lp942
g75
ag161
ag150
ag241
ag171
ag208
ag263
asS'appl_722'
p943
(lp944
g46
ag186
ag66
ag159
asS'appl_721'
p945
(lp946
g21
ag153
ag26
ag112
ag272
asS'appl_720'
p947
(lp948
g4
ag7
asS'appl_727'
p949
(lp950
g83
ag111
ag113
asS'appl_726'
p951
(lp952
g56
ag105
ag183
asS'appl_725'
p953
(lp954
g195
ag240
asS'appl_724'
p955
(lp956
g85
ag44
asS'appl_729'
p957
(lp958
g5
ag175
ag195
ag138
ag192
ag117
ag172
asS'appl_728'
p959
(lp960
g45
ag368
ag175
ag5
ag116
ag84
ag21
ag127
asS'appl_899'
p961
(lp962
g143
ag103
ag240
ag67
asS'appl_898'
p963
(lp964
g165
ag195
ag428
asS'appl_1208'
p965
(lp966
g232
ag222
ag203
ag204
asS'appl_1209'
p967
(lp968
g218
ag72
ag117
ag11
asS'appl_891'
p969
(lp970
g143
ag54
ag127
ag12
asS'appl_890'
p971
(lp972
g25
ag29
ag26
ag205
ag118
ag82
asS'appl_893'
p973
(lp974
g142
ag186
ag205
ag308
ag6
asS'appl_892'
p975
(lp976
g86
ag48
ag116
ag14
ag205
ag428
ag186
asS'appl_895'
p977
(lp978
g225
ag67
ag215
ag123
ag45
asS'appl_894'
p979
(lp980
g26
ag84
ag195
ag116
ag377
asS'appl_897'
p981
(lp982
g142
ag147
ag44
asS'appl_896'
p983
(lp984
g113
ag284
asS'appl_547'
p985
(lp986
g12
ag41
ag100
ag156
ag108
asS'appl_546'
p987
(lp988
g61
ag30
ag263
ag279
ag269
asS'appl_545'
p989
(lp990
g124
ag13
ag368
asS'appl_544'
p991
(lp992
g215
ag61
ag19
asS'appl_543'
p993
(lp994
g12
ag150
ag75
asS'appl_542'
p995
(lp996
g164
ag117
ag85
ag231
asS'appl_541'
p997
(lp998
g118
ag225
ag131
ag153
asS'appl_540'
p999
(lp1000
g241
asS'appl_549'
p1001
(lp1002
g24
ag122
ag171
ag178
ag204
asS'appl_548'
p1003
(lp1004
g284
ag186
ag237
ag171
ag182
asS'appl_1332'
p1005
(lp1006
g11
ag30
ag90
ag82
ag142
ag7
ag41
asS'appl_1333'
p1007
(lp1008
g175
ag47
ag153
ag4
ag123
asS'appl_1330'
p1009
(lp1010
g100
ag147
ag241
ag192
ag272
ag117
asS'appl_1331'
p1011
(lp1012
g225
ag15
ag25
ag273
asS'appl_1336'
p1013
(lp1014
g21
ag45
ag30
asS'appl_1337'
p1015
(lp1016
g135
ag108
ag62
ag118
ag159
asS'appl_1334'
p1017
(lp1018
g131
ag221
ag51
ag428
ag25
ag208
asS'appl_1335'
p1019
(lp1020
g21
ag62
ag182
ag116
asS'appl_1338'
p1021
(lp1022
g61
ag182
ag241
asS'appl_1339'
p1023
(lp1024
g308
ag159
asS'appl_949'
p1025
(lp1026
g191
ag47
ag161
ag65
ag93
ag41
ag62
ag38
ag228
asS'appl_948'
p1027
(lp1028
g86
ag91
ag172
ag85
asS'appl_943'
p1029
(lp1030
g368
ag105
ag29
ag6
asS'appl_942'
p1031
(lp1032
g4
ag397
ag198
ag6
ag368
ag108
ag70
asS'appl_941'
p1033
(lp1034
g83
ag16
ag123
ag29
asS'appl_940'
p1035
(lp1036
g142
ag241
ag153
ag83
ag119
ag5
ag132
ag113
ag10
asS'appl_947'
p1037
(lp1038
g26
ag75
asS'appl_946'
p1039
(lp1040
g117
ag428
ag62
ag12
ag293
ag156
asS'appl_945'
p1041
(lp1042
g71
ag105
ag7
ag168
ag38
ag123
ag284
ag165
ag287
asS'appl_944'
p1043
(lp1044
g4
ag293
ag35
ag123
ag13
ag147
asS'appl_1026'
p1045
(lp1046
g6
ag26
ag108
ag292
ag46
asS'appl_1027'
p1047
(lp1048
g105
ag132
ag61
ag191
ag532
asS'appl_1024'
p1049
(lp1050
g144
ag428
ag231
ag94
ag153
ag225
ag147
asS'appl_1025'
p1051
(lp1052
g240
ag91
ag204
ag127
ag113
ag112
asS'appl_1022'
p1053
(lp1054
g144
ag26
ag55
ag117
ag99
ag71
asS'appl_1023'
p1055
(lp1056
g41
ag183
ag21
ag85
ag123
ag139
asS'appl_1020'
p1057
(lp1058
g14
ag46
ag86
ag160
ag10
ag100
asS'appl_1021'
p1059
(lp1060
g44
ag205
ag377
ag21
ag222
asS'appl_1028'
p1061
(lp1062
g171
ag35
ag127
ag47
ag208
ag241
ag94
asS'appl_1029'
p1063
(lp1064
g323
ag225
ag99
ag24
ag231
ag143
ag66
ag75
ag263
asS'appl_222'
p1065
(lp1066
g237
ag377
ag70
ag29
ag61
ag222
ag273
ag132
asS'appl_223'
p1067
(lp1068
g48
ag119
ag142
asS'appl_996'
p1069
(lp1070
g75
ag65
ag45
ag29
ag161
ag135
asS'appl_997'
p1071
(lp1072
g263
ag93
ag156
ag397
asS'appl_990'
p1073
(lp1074
g119
ag124
ag86
ag284
ag7
ag195
ag192
asS'appl_991'
p1075
(lp1076
g377
ag205
ag34
ag103
asS'appl_992'
p1077
(lp1078
g278
ag11
ag132
asS'appl_225'
p1079
(lp1080
g139
ag108
ag26
asS'appl_23'
p1081
(lp1082
g87
ag156
ag70
ag380
asS'appl_22'
p1083
(lp1084
g150
ag85
ag122
ag186
ag30
ag164
ag192
asS'appl_21'
p1085
(lp1086
g122
ag279
asS'appl_20'
p1087
(lp1088
g70
ag183
ag123
asS'appl_27'
p1089
(lp1090
g284
ag104
ag46
ag138
ag397
ag160
ag228
ag171
asS'appl_26'
p1091
(lp1092
g380
ag105
asS'appl_25'
p1093
(lp1094
g99
ag308
ag183
ag269
ag78
asS'appl_24'
p1095
(lp1096
g105
ag87
ag278
ag159
ag308
ag165
ag323
ag4
ag41
ag26
ag117
asS'appl_1152'
p1097
(lp1098
g124
ag90
ag172
ag292
ag439
asS'appl_1153'
p1099
(lp1100
g266
ag273
ag62
ag287
ag179
asS'appl_29'
p1101
(lp1102
g24
ag195
ag41
ag34
ag48
asS'appl_1151'
p1103
(lp1104
g156
ag87
ag165
ag208
ag308
asS'appl_1156'
p1105
(lp1106
g231
ag186
ag33
ag11
asS'appl_1157'
p1107
(lp1108
g263
ag380
ag172
asS'appl_1154'
p1109
(lp1110
g84
ag153
ag269
ag231
ag205
asS'appl_1155'
p1111
(lp1112
g48
ag172
ag47
ag156
ag124
asS'appl_342'
p1113
(lp1114
g153
ag82
ag112
ag5
ag284
asS'appl_617'
p1115
(lp1116
g142
ag99
asS'appl_616'
p1117
(lp1118
sS'appl_347'
p1119
(lp1120
g16
ag25
ag105
ag308
ag33
asS'appl_346'
p1121
(lp1122
g156
ag103
ag147
ag82
asS'appl_1549'
p1123
(lp1124
g84
ag205
ag178
ag142
ag108
asS'appl_1548'
p1125
(lp1126
g182
ag119
ag143
ag178
ag159
ag203
asS'appl_1545'
p1127
(lp1128
g144
ag203
ag131
ag269
ag91
ag308
ag5
asS'appl_1544'
p1129
(lp1130
g94
ag139
ag62
asS'appl_1547'
p1131
(lp1132
g20
ag111
ag100
ag122
ag191
asS'appl_1546'
p1133
(lp1134
g111
ag41
ag5
asS'appl_1541'
p1135
(lp1136
g51
ag228
ag178
ag104
ag78
ag266
asS'appl_1540'
p1137
(lp1138
g5
ag7
ag380
ag26
ag147
ag138
ag208
ag161
asS'appl_1543'
p1139
(lp1140
g203
ag44
ag99
ag29
ag54
ag55
asS'appl_1542'
p1141
(lp1142
g83
ag131
ag119
asS'appl_57'
p1143
(lp1144
g104
ag117
ag182
ag44
ag273
asS'appl_1499'
p1145
(lp1146
g278
ag35
ag368
asS'appl_1498'
p1147
(lp1148
g86
ag117
ag160
ag221
asS'appl_1497'
p1149
(lp1150
g183
ag279
ag228
ag21
ag54
ag241
asS'appl_1496'
p1151
(lp1152
g232
ag13
asS'appl_1495'
p1153
(lp1154
g30
ag3
asS'appl_1494'
p1155
(lp1156
g5
ag82
ag104
ag21
ag16
ag66
ag208
asS'appl_1493'
p1157
(lp1158
g75
ag232
ag13
ag14
asS'appl_1492'
p1159
(lp1160
g182
ag221
ag105
ag171
ag34
asS'appl_1491'
p1161
(lp1162
g35
ag142
ag34
ag29
ag135
ag99
asS'appl_1490'
p1163
(lp1164
g46
ag48
ag113
ag122
ag221
asS'appl_150'
p1165
(lp1166
g139
ag34
asS'appl_151'
p1167
(lp1168
g16
ag124
ag232
ag195
ag25
ag218
asS'appl_152'
p1169
(lp1170
g51
ag131
ag44
ag117
ag293
ag72
ag144
asS'appl_153'
p1171
(lp1172
g191
ag241
ag139
asS'appl_154'
p1173
(lp1174
g203
ag165
ag308
ag54
asS'appl_155'
p1175
(lp1176
g222
ag116
ag4
ag272
ag91
ag139
ag105
asS'appl_156'
p1177
(lp1178
g66
ag104
ag287
asS'appl_157'
p1179
(lp1180
g45
ag232
ag168
ag111
asS'appl_158'
p1181
(lp1182
g263
ag7
ag79
ag20
ag71
ag156
ag168
asS'appl_159'
p1183
(lp1184
g124
ag156
ag100
ag130
ag25
ag21
ag273
ag35
ag56
ag165
asS'appl_408'
p1185
(lp1186
g14
ag11
asS'appl_409'
p1187
(lp1188
g21
ag172
ag135
asS'appl_716'
p1189
(lp1190
g183
ag11
ag150
ag112
ag123
ag46
asS'appl_717'
p1191
(lp1192
g99
ag215
ag25
ag231
ag20
asS'appl_714'
p1193
(lp1194
g263
ag135
ag175
ag240
asS'appl_715'
p1195
(lp1196
g94
ag293
ag240
asS'appl_712'
p1197
(lp1198
g287
ag532
ag153
ag71
ag6
asS'appl_713'
p1199
(lp1200
g225
ag78
ag34
ag532
ag82
asS'appl_710'
p1201
(lp1202
g7
ag323
ag85
asS'appl_711'
p1203
(lp1204
g84
ag380
ag161
ag30
ag183
ag14
ag287
asS'appl_718'
p1205
(lp1206
g164
ag25
ag131
ag21
ag61
ag237
ag266
asS'appl_719'
p1207
(lp1208
g142
ag269
ag108
ag86
ag48
ag78
ag25
asS'appl_392'
p1209
(lp1210
g272
ag191
ag428
asS'appl_393'
p1211
(lp1212
g20
ag122
ag29
ag62
ag21
ag13
asS'appl_390'
p1213
(lp1214
g7
ag6
ag278
asS'appl_391'
p1215
(lp1216
g91
ag175
ag55
ag308
ag116
ag221
asS'appl_396'
p1217
(lp1218
g138
ag55
ag66
ag225
ag279
ag65
ag144
asS'appl_397'
p1219
(lp1220
g70
ag48
ag168
asS'appl_394'
p1221
(lp1222
g94
ag104
ag48
ag25
ag66
ag183
asS'appl_395'
p1223
(lp1224
g175
ag48
ag15
ag144
ag34
asS'appl_398'
p1225
(lp1226
g94
ag225
asS'appl_399'
p1227
(lp1228
g6
ag25
ag70
ag117
ag103
asS'appl_1233'
p1229
(lp1230
g284
ag119
ag142
ag13
ag122
ag160
asS'appl_1232'
p1231
(lp1232
g55
ag122
ag19
ag222
ag66
asS'appl_578'
p1233
(lp1234
g225
ag72
ag143
ag279
asS'appl_579'
p1235
(lp1236
g161
ag118
ag183
asS'appl_1237'
p1237
(lp1238
g323
ag186
ag237
asS'appl_1236'
p1239
(lp1240
g205
ag159
asS'appl_1235'
p1241
(lp1242
g263
ag272
ag215
asS'appl_1234'
p1243
(lp1244
g29
ag138
ag83
ag532
asS'appl_572'
p1245
(lp1246
g55
ag132
ag139
ag168
ag26
asS'appl_573'
p1247
(lp1248
g10
ag71
ag153
ag130
ag117
ag198
asS'appl_1239'
p1249
(lp1250
g144
ag532
ag38
ag7
ag113
asS'appl_1238'
p1251
(lp1252
g222
ag118
ag93
ag86
ag171
asS'appl_576'
p1253
(lp1254
g221
ag222
ag368
asS'appl_577'
p1255
(lp1256
g292
asS'appl_574'
p1257
(lp1258
g75
ag34
ag105
ag83
ag103
ag55
asS'appl_575'
p1259
(lp1260
g54
ag15
ag20
ag175
ag225
asS'appl_378'
p1261
(lp1262
g29
ag135
asS'appl_379'
p1263
(lp1264
g273
ag215
ag92
ag104
ag108
ag266
asS'appl_370'
p1265
(lp1266
g103
ag192
ag150
asS'appl_371'
p1267
(lp1268
g183
ag139
asS'appl_372'
p1269
(lp1270
g85
ag272
ag168
asS'appl_373'
p1271
(lp1272
g16
ag232
ag164
ag66
ag397
asS'appl_374'
p1273
(lp1274
g65
ag130
ag46
ag198
ag66
asS'appl_375'
p1275
(lp1276
g6
ag118
asS'appl_376'
p1277
(lp1278
g93
ag195
asS'appl_377'
p1279
(lp1280
g122
ag228
ag92
ag94
ag34
asS'appl_143'
p1281
(lp1282
g225
ag104
ag228
ag19
ag203
asS'appl_1271'
p1283
(lp1284
g225
ag124
ag160
ag192
asS'appl_142'
p1285
(lp1286
g14
ag368
ag21
ag3
ag29
asS'appl_1270'
p1287
(lp1288
g138
ag48
ag16
asS'appl_141'
p1289
(lp1290
g368
ag159
ag71
ag273
asS'appl_1307'
p1291
(lp1292
g273
ag104
ag175
ag232
ag65
ag56
ag293
ag127
asS'appl_1306'
p1293
(lp1294
g279
ag79
ag91
ag113
asS'appl_1305'
p1295
(lp1296
g67
ag87
ag21
ag113
asS'appl_1304'
p1297
(lp1298
g205
ag29
ag127
ag93
ag195
ag240
ag186
ag20
asS'appl_1303'
p1299
(lp1300
g105
ag16
ag72
ag272
ag138
asS'appl_1302'
p1301
(lp1302
g292
ag168
ag26
ag44
ag78
ag12
asS'appl_1301'
p1303
(lp1304
g323
ag25
ag19
ag122
asS'appl_1300'
p1305
(lp1306
g90
ag160
ag104
ag103
ag159
ag165
asS'appl_147'
p1307
(lp1308
g15
ag377
ag308
ag16
asS'appl_59'
p1309
(lp1310
sS'appl_1309'
p1311
(lp1312
g15
ag182
asS'appl_1308'
p1313
(lp1314
g428
ag82
asS'appl_145'
p1315
(lp1316
g92
ag439
ag78
asS'appl_978'
p1317
(lp1318
g195
ag231
ag30
ag93
asS'appl_979'
p1319
(lp1320
g172
ag67
ag287
ag240
ag439
asS'appl_976'
p1321
(lp1322
g14
ag221
asS'appl_977'
p1323
(lp1324
g85
ag272
ag237
ag34
ag5
ag131
asS'appl_974'
p1325
(lp1326
g222
ag25
ag100
asS'appl_975'
p1327
(lp1328
g70
ag293
ag29
ag240
asS'appl_972'
p1329
(lp1330
g61
ag130
ag15
ag26
ag105
asS'appl_973'
p1331
(lp1332
g15
ag119
ag130
ag65
ag287
ag103
ag150
asS'appl_970'
p1333
(lp1334
g232
ag103
asS'appl_971'
p1335
(lp1336
g532
ag116
ag16
ag112
asS'appl_1279'
p1337
(lp1338
g112
ag273
ag368
ag240
ag12
asS'appl_1278'
p1339
(lp1340
g82
ag100
ag377
ag123
asS'appl_1019'
p1341
(lp1342
g94
ag143
ag161
asS'appl_1018'
p1343
(lp1344
g237
ag7
ag84
ag13
ag100
ag24
ag105
ag168
ag266
ag34
asS'appl_1013'
p1345
(lp1346
g84
ag87
ag71
asS'appl_1012'
p1347
(lp1348
g92
ag44
ag153
ag144
ag123
ag131
asS'appl_1011'
p1349
(lp1350
g397
ag222
ag48
asS'appl_1010'
p1351
(lp1352
g62
ag21
ag153
ag70
ag397
ag323
ag198
asS'appl_1017'
p1353
(lp1354
g61
ag164
ag78
ag168
ag13
asS'appl_1016'
p1355
(lp1356
g272
ag33
ag266
asS'appl_1015'
p1357
(lp1358
g79
ag117
ag269
ag29
ag131
ag241
asS'appl_1014'
p1359
(lp1360
g171
ag62
ag91
ag208
ag10
asS'appl_30'
p1361
(lp1362
g116
ag3
asS'appl_31'
p1363
(lp1364
g35
ag221
ag368
ag44
ag118
asS'appl_32'
p1365
(lp1366
g279
ag71
ag20
ag323
asS'appl_33'
p1367
(lp1368
g70
asS'appl_34'
p1369
(lp1370
g293
ag13
ag93
ag29
ag218
ag287
asS'appl_35'
p1371
(lp1372
g124
ag56
ag159
asS'appl_36'
p1373
(lp1374
g380
ag237
asS'appl_1168'
p1375
(lp1376
g124
ag266
ag113
ag56
asS'appl_1167'
p1377
(lp1378
g99
ag108
ag93
ag269
ag279
asS'appl_1166'
p1379
(lp1380
g142
ag117
ag90
asS'appl_1165'
p1381
(lp1382
g172
asS'appl_1164'
p1383
(lp1384
g164
ag45
asS'appl_1163'
p1385
(lp1386
g160
ag66
ag48
ag82
asS'appl_1162'
p1387
(lp1388
g24
ag21
ag66
ag44
asS'appl_1161'
p1389
(lp1390
g111
ag104
ag182
asS'appl_1160'
p1391
(lp1392
g119
ag87
ag72
ag397
ag35
asS'appl_1158'
p1393
(lp1394
g90
asS'appl_1159'
p1395
(lp1396
g66
ag135
ag225
ag54
ag150
asS'appl_1558'
p1397
(lp1398
g279
ag195
ag25
asS'appl_1559'
p1399
(lp1400
g112
ag205
asS'appl_1556'
p1401
(lp1402
g19
ag14
ag397
ag205
ag159
ag13
ag266
ag292
asS'appl_1557'
p1403
(lp1404
g108
ag132
ag103
asS'appl_1554'
p1405
(lp1406
g272
ag84
ag35
asS'appl_1555'
p1407
(lp1408
g127
ag292
ag91
ag61
asS'appl_1552'
p1409
(lp1410
g56
ag164
ag182
ag228
asS'appl_1553'
p1411
(lp1412
g117
ag132
ag118
ag377
ag119
ag164
asS'appl_1550'
p1413
(lp1414
g34
ag117
ag147
ag368
ag139
ag153
asS'appl_1551'
p1415
(lp1416
g99
ag266
ag192
ag204
ag56
asS'appl_612'
p1417
(lp1418
g293
ag159
ag90
ag24
ag41
asS'appl_1480'
p1419
(lp1420
g237
ag179
ag116
asS'appl_1481'
p1421
(lp1422
g117
ag195
ag91
ag21
ag24
asS'appl_1482'
p1423
(lp1424
g100
ag241
asS'appl_1483'
p1425
(lp1426
g85
ag231
ag82
ag25
ag123
asS'appl_1484'
p1427
(lp1428
g79
ag91
asS'appl_1485'
p1429
(lp1430
g293
ag66
ag179
ag45
ag308
ag46
asS'appl_1486'
p1431
(lp1432
g231
asS'appl_1487'
p1433
(lp1434
g263
ag279
ag368
ag287
ag269
ag78
ag122
asS'appl_1488'
p1435
(lp1436
g94
ag532
ag242
ag241
ag439
ag122
asS'appl_1489'
p1437
(lp1438
g51
ag139
ag85
ag44
asS'appl_415'
p1439
(lp1440
g10
ag103
ag397
ag272
ag380
ag439
ag144
ag29
asS'appl_414'
p1441
(lp1442
g105
ag87
ag118
asS'appl_417'
p1443
(lp1444
g131
ag147
ag165
asS'appl_416'
p1445
(lp1446
g70
ag266
ag79
ag6
ag87
asS'appl_411'
p1447
(lp1448
g56
ag273
ag26
ag130
ag99
ag172
asS'appl_410'
p1449
(lp1450
g198
ag56
ag91
asS'appl_413'
p1451
(lp1452
g94
ag55
asS'appl_412'
p1453
(lp1454
g203
ag135
ag92
ag279
ag122
ag130
ag142
asS'appl_149'
p1455
(lp1456
g205
ag15
asS'appl_148'
p1457
(lp1458
g5
ag195
ag308
asS'appl_419'
p1459
(lp1460
g72
ag111
ag164
ag139
ag272
ag308
ag83
ag14
ag323
asS'appl_418'
p1461
(lp1462
g240
ag532
ag46
ag3
ag82
ag143
ag323
ag105
ag29
ag204
ag131
ag55
ag112
ag19
asS'appl_709'
p1463
(lp1464
g222
ag70
ag269
ag46
ag104
ag428
ag108
asS'appl_708'
p1465
(lp1466
g51
ag203
ag41
ag278
ag131
ag308
ag164
asS'appl_701'
p1467
(lp1468
g439
ag85
ag144
ag111
ag78
ag46
asS'appl_700'
p1469
(lp1470
g65
ag35
ag278
ag143
ag272
ag287
ag160
asS'appl_703'
p1471
(lp1472
g138
ag108
ag308
ag215
asS'appl_702'
p1473
(lp1474
g132
ag56
ag87
ag44
ag72
asS'appl_705'
p1475
(lp1476
g198
ag72
ag131
ag172
asS'appl_704'
p1477
(lp1478
g160
ag5
ag100
ag3
ag240
ag279
asS'appl_707'
p1479
(lp1480
g111
ag122
ag284
ag45
ag132
ag6
asS'appl_706'
p1481
(lp1482
g103
ag61
ag159
ag34
ag139
ag24
ag70
asS'appl_385'
p1483
(lp1484
g139
ag116
ag47
ag377
asS'appl_384'
p1485
(lp1486
g269
ag61
ag232
ag83
ag87
asS'appl_387'
p1487
(lp1488
g153
ag240
ag368
asS'appl_386'
p1489
(lp1490
g368
ag132
ag278
ag15
ag105
ag78
ag179
asS'appl_381'
p1491
(lp1492
sS'appl_380'
p1493
(lp1494
g165
ag171
ag3
ag164
asS'appl_383'
p1495
(lp1496
g70
ag45
asS'appl_382'
p1497
(lp1498
g94
ag117
ag35
ag10
asS'appl_389'
p1499
(lp1500
g75
ag41
ag123
ag25
ag4
ag92
ag130
asS'appl_388'
p1501
(lp1502
g272
ag143
ag263
asS'appl_1224'
p1503
(lp1504
g242
ag25
ag35
asS'appl_1225'
p1505
(lp1506
g204
ag93
ag171
ag112
asS'appl_1226'
p1507
(lp1508
g242
ag78
ag99
ag15
asS'appl_1227'
p1509
(lp1510
g273
ag46
ag51
asS'appl_1220'
p1511
(lp1512
g204
ag172
ag380
ag293
ag105
asS'appl_568'
p1513
(lp1514
g66
ag105
ag179
ag368
ag85
asS'appl_1222'
p1515
(lp1516
g225
asS'appl_1223'
p1517
(lp1518
g135
ag138
ag108
ag46
asS'appl_565'
p1519
(lp1520
g117
ag266
ag205
ag287
ag6
asS'appl_564'
p1521
(lp1522
g172
ag273
ag225
ag293
ag41
ag86
ag161
asS'appl_567'
p1523
(lp1524
g29
ag153
ag82
ag172
asS'appl_566'
p1525
(lp1526
g150
ag439
ag33
ag85
asS'appl_1228'
p1527
(lp1528
g182
ag19
ag272
ag164
ag225
asS'appl_1229'
p1529
(lp1530
g30
ag13
ag11
ag143
asS'appl_563'
p1531
(lp1532
g72
ag377
ag7
ag191
ag131
asS'appl_562'
p1533
(lp1534
g397
ag70
ag46
ag130
ag67
asS'appl_369'
p1535
(lp1536
g118
ag100
ag278
ag153
ag159
ag66
asS'appl_368'
p1537
(lp1538
g55
asS'appl_363'
p1539
(lp1540
g183
ag93
ag34
ag228
ag428
ag232
asS'appl_362'
p1541
(lp1542
g111
ag108
ag138
ag428
ag47
asS'appl_361'
p1543
(lp1544
g20
ag165
ag397
asS'appl_360'
p1545
(lp1546
g103
ag135
ag84
ag111
asS'appl_367'
p1547
(lp1548
g51
asS'appl_366'
p1549
(lp1550
g278
ag4
ag12
asS'appl_365'
p1551
(lp1552
g195
asS'appl_364'
p1553
(lp1554
g279
ag45
ag71
ag153
ag79
asS'appl_1318'
p1555
(lp1556
g122
ag263
ag377
ag48
ag179
ag92
asS'appl_1319'
p1557
(lp1558
g186
ag87
ag116
asS'appl_1310'
p1559
(lp1560
g67
ag160
ag20
ag12
ag222
ag269
asS'appl_1311'
p1561
(lp1562
g156
ag35
ag93
ag108
ag308
asS'appl_1312'
p1563
(lp1564
g222
ag172
ag83
ag91
ag108
ag242
asS'appl_1313'
p1565
(lp1566
g308
ag242
ag119
asS'appl_1314'
p1567
(lp1568
g161
ag164
ag5
ag127
asS'appl_1315'
p1569
(lp1570
g26
ag92
ag218
asS'appl_1316'
p1571
(lp1572
g78
ag25
ag70
ag205
asS'appl_1317'
p1573
(lp1574
g29
ag30
asS'appl_961'
p1575
(lp1576
g71
ag29
ag292
ag24
asS'appl_960'
p1577
(lp1578
g62
asS'appl_963'
p1579
(lp1580
g35
ag113
ag222
asS'appl_962'
p1581
(lp1582
g122
ag153
ag46
asS'appl_965'
p1583
(lp1584
g55
ag232
ag308
asS'appl_964'
p1585
(lp1586
g208
ag132
ag153
ag241
ag205
ag225
asS'appl_967'
p1587
(lp1588
g104
ag240
ag56
ag24
asS'appl_966'
p1589
(lp1590
g198
ag119
asS'appl_969'
p1591
(lp1592
g87
ag175
ag195
asS'appl_968'
p1593
(lp1594
g11
ag164
asS'appl_1008'
p1595
(lp1596
g204
ag21
asS'appl_1009'
p1597
(lp1598
g99
ag160
ag175
ag159
ag203
ag150
asS'appl_1004'
p1599
(lp1600
g70
ag94
asS'appl_1005'
p1601
(lp1602
g130
ag71
ag269
ag161
asS'appl_1006'
p1603
(lp1604
g323
ag90
ag56
asS'appl_1007'
p1605
(lp1606
g26
ag117
ag91
ag92
ag56
ag186
asS'appl_1000'
p1607
(lp1608
g171
ag231
ag70
ag428
asS'appl_1001'
p1609
(lp1610
g75
ag103
asS'appl_1002'
p1611
(lp1612
g47
ag142
asS'appl_1003'
p1613
(lp1614
g30
ag269
ag71
ag46
ag82
ag44
ag85
ag108
asS'appl_1170'
p1615
(lp1616
g204
ag130
ag138
ag20
ag75
ag21
ag186
ag56
asS'appl_1171'
p1617
(lp1618
g84
ag159
ag35
ag182
ag132
ag75
ag198
ag150
ag439
asS'appl_1172'
p1619
(lp1620
g428
ag118
ag139
ag172
ag19
ag439
asS'appl_1173'
p1621
(lp1622
g3
ag183
asS'appl_1174'
p1623
(lp1624
g71
ag91
ag377
ag532
ag7
ag171
ag308
asS'appl_1175'
p1625
(lp1626
g397
ag241
ag100
ag82
ag428
asS'appl_1176'
p1627
(lp1628
g99
ag90
ag116
asS'appl_1177'
p1629
(lp1630
g156
ag164
ag11
ag263
ag168
asS'appl_1178'
p1631
(lp1632
g439
ag44
asS'appl_1179'
p1633
(lp1634
g292
ag164
ag100
ag191
asS'appl_56'
p1635
(lp1636
g172
ag30
ag287
ag45
ag86
ag377
ag90
asS'appl_8'
p1637
(lp1638
g222
ag131
ag84
asS'appl_9'
p1639
(lp1640
g139
ag205
asS'appl_0'
p1641
(lp1642
g5
ag278
ag241
asS'appl_569'
p1643
(lp1644
g51
ag182
ag19
asS'appl_2'
p1645
(lp1646
g132
ag179
ag273
asS'appl_3'
p1647
(lp1648
g14
ag51
ag241
ag12
asS'appl_4'
p1649
(lp1650
g131
ag105
ag12
ag85
ag3
asS'appl_5'
p1651
(lp1652
g130
ag104
ag67
ag91
asS'appl_6'
p1653
(lp1654
g41
ag19
ag144
asS'appl_1221'
p1655
(lp1656
g108
ag21
asS'appl_1377'
p1657
(lp1658
g71
ag29
ag67
ag5
ag222
asS'appl_561'
p1659
(lp1660
g16
ag71
ag5
ag183
ag90
ag34
asS'appl_560'
p1661
(lp1662
g41
ag231
asS'appl_1563'
p1663
(lp1664
g143
ag12
ag90
ag84
ag127
ag118
ag5
ag62
ag221
asS'appl_1562'
p1665
(lp1666
g24
ag221
asS'appl_1561'
p1667
(lp1668
g12
ag66
ag103
ag228
ag292
asS'appl_1560'
p1669
(lp1670
g168
ag228
ag113
ag165
ag123
ag94
asS'appl_1567'
p1671
(lp1672
g83
ag160
ag86
ag143
ag139
asS'appl_1566'
p1673
(lp1674
g205
ag147
ag287
ag46
ag65
asS'appl_1565'
p1675
(lp1676
g150
ag147
ag45
ag160
ag116
asS'appl_1564'
p1677
(lp1678
g156
ag130
ag21
ag124
ag164
asS'appl_1569'
p1679
(lp1680
g25
ag278
ag6
ag439
asS'appl_1568'
p1681
(lp1682
g44
ag204
ag99
ag139
ag4
ag205
ag33
ag221
ag147
ag61
ag21
asS'appl_176'
p1683
(lp1684
g144
ag111
ag83
ag156
ag85
asS'appl_177'
p1685
(lp1686
g26
ag147
ag237
ag242
ag72
ag232
ag12
asS'appl_174'
p1687
(lp1688
g135
ag67
ag100
ag186
asS'appl_175'
p1689
(lp1690
g13
ag159
ag139
ag71
asS'appl_172'
p1691
(lp1692
g24
ag99
ag93
ag143
ag124
ag108
asS'appl_173'
p1693
(lp1694
g208
ag90
ag203
asS'appl_170'
p1695
(lp1696
g165
ag38
ag231
ag113
ag7
ag78
asS'appl_171'
p1697
(lp1698
g94
ag269
ag127
ag118
ag263
asS'appl_178'
p1699
(lp1700
g222
ag117
ag87
asS'appl_179'
p1701
(lp1702
g204
ag91
ag150
asS'appl_1371'
p1703
(lp1704
g6
ag122
ag278
asS'appl_1589'
p1705
(lp1706
g105
asS'appl_1588'
p1707
(lp1708
g269
ag241
ag118
asS'appl_1581'
p1709
(lp1710
g70
ag66
ag428
ag293
ag150
ag273
ag142
ag205
asS'appl_1580'
p1711
(lp1712
g273
ag242
ag182
ag103
ag208
asS'appl_1583'
p1713
(lp1714
g153
ag21
asS'appl_1582'
p1715
(lp1716
g48
ag368
ag218
ag127
asS'appl_1585'
p1717
(lp1718
g6
ag71
ag532
asS'appl_1584'
p1719
(lp1720
g46
ag428
ag21
ag62
ag65
asS'appl_1587'
p1721
(lp1722
g168
asS'appl_1586'
p1723
(lp1724
g26
asS'appl_778'
p1725
(lp1726
g85
ag6
ag164
ag135
asS'appl_779'
p1727
(lp1728
g171
ag122
ag377
asS'appl_774'
p1729
(lp1730
g44
ag24
ag56
asS'appl_775'
p1731
(lp1732
g205
ag92
ag186
ag272
ag6
ag139
asS'appl_776'
p1733
(lp1734
g269
ag284
ag186
ag38
ag99
ag51
asS'appl_777'
p1735
(lp1736
g182
ag203
ag87
ag132
ag205
ag20
asS'appl_770'
p1737
(lp1738
g161
ag51
ag83
ag34
ag228
asS'appl_771'
p1739
(lp1740
g278
ag208
ag71
ag87
asS'appl_772'
p1741
(lp1742
g90
ag172
ag108
ag192
ag178
ag45
asS'appl_980'
p1743
(lp1744
g179
ag12
asS'appl_590'
p1745
(lp1746
g279
ag104
ag6
asS'appl_591'
p1747
(lp1748
g241
ag131
ag164
ag71
ag30
asS'appl_933'
p1749
(lp1750
g86
ag186
ag108
asS'appl_593'
p1751
(lp1752
g171
ag242
ag21
ag78
ag56
ag41
asS'appl_594'
p1753
(lp1754
g12
ag159
ag380
ag178
asS'appl_595'
p1755
(lp1756
g159
ag279
ag82
ag21
asS'appl_596'
p1757
(lp1758
g10
ag172
ag5
ag86
asS'appl_597'
p1759
(lp1760
g172
ag231
ag24
ag34
asS'appl_598'
p1761
(lp1762
g48
ag198
ag35
ag30
asS'appl_599'
p1763
(lp1764
g67
ag153
ag19
asS'appl_600'
p1765
(lp1766
sS'appl_601'
p1767
(lp1768
g13
ag70
ag104
ag56
asS'appl_602'
p1769
(lp1770
g25
ag123
asS'appl_603'
p1771
(lp1772
g159
ag46
ag78
ag94
ag54
asS'appl_604'
p1773
(lp1774
g46
ag19
asS'appl_605'
p1775
(lp1776
g532
asS'appl_606'
p1777
(lp1778
g123
ag33
ag135
ag266
ag55
ag113
asS'appl_607'
p1779
(lp1780
g83
ag25
ag38
ag3
ag85
ag147
ag5
asS'appl_608'
p1781
(lp1782
g368
ag47
ag21
ag273
ag11
ag104
asS'appl_609'
p1783
(lp1784
g38
ag99
ag147
ag83
ag19
ag368
asS'appl_354'
p1785
(lp1786
g135
ag86
asS'appl_355'
p1787
(lp1788
g225
ag16
ag228
asS'appl_352'
p1789
(lp1790
g62
ag192
ag85
ag532
asS'appl_353'
p1791
(lp1792
g55
ag6
ag119
ag143
ag3
ag72
asS'appl_350'
p1793
(lp1794
g55
ag160
ag100
ag122
ag225
ag153
asS'appl_351'
p1795
(lp1796
g287
ag21
asS'appl_288'
p1797
(lp1798
g284
ag61
asS'appl_289'
p1799
(lp1800
g191
ag273
ag108
ag12
ag139
asS'appl_284'
p1801
(lp1802
g118
ag240
ag15
ag51
asS'appl_285'
p1803
(lp1804
g123
ag198
ag237
ag20
ag55
ag118
asS'appl_286'
p1805
(lp1806
g198
ag117
ag79
asS'appl_287'
p1807
(lp1808
g439
ag30
ag51
ag127
asS'appl_280'
p1809
(lp1810
g368
ag85
ag198
ag35
asS'appl_281'
p1811
(lp1812
g143
ag111
ag228
ag147
asS'appl_282'
p1813
(lp1814
g122
ag439
ag47
ag284
ag103
ag29
ag287
ag7
asS'appl_283'
p1815
(lp1816
g237
ag79
ag55
ag29
ag24
ag143
asS'appl_1369'
p1817
(lp1818
g232
asS'appl_1368'
p1819
(lp1820
g108
ag111
ag46
asS'appl_1365'
p1821
(lp1822
sS'appl_1364'
p1823
(lp1824
g237
ag204
ag65
ag24
asS'appl_1367'
p1825
(lp1826
g240
ag117
ag104
ag15
asS'appl_1366'
p1827
(lp1828
g159
ag24
ag6
ag79
ag368
asS'appl_1361'
p1829
(lp1830
g24
ag164
ag72
ag33
ag86
ag20
ag132
ag160
ag78
asS'appl_1360'
p1831
(lp1832
g86
ag532
ag183
ag61
ag90
ag119
asS'appl_1363'
p1833
(lp1834
g228
ag38
ag117
ag48
ag272
ag135
ag11
asS'appl_1362'
p1835
(lp1836
g165
asS'appl_914'
p1837
(lp1838
g54
ag6
ag71
ag171
ag65
ag165
asS'appl_915'
p1839
(lp1840
g87
ag205
asS'appl_916'
p1841
(lp1842
g111
ag293
ag29
ag14
asS'appl_917'
p1843
(lp1844
g4
asS'appl_910'
p1845
(lp1846
g278
ag111
ag105
asS'appl_911'
p1847
(lp1848
g10
ag127
ag112
ag168
asS'appl_912'
p1849
(lp1850
g203
ag171
ag62
asS'appl_913'
p1851
(lp1852
g273
ag164
ag292
ag221
asS'appl_918'
p1853
(lp1854
g47
ag10
ag130
ag135
ag30
ag147
ag35
ag61
ag13
asS'appl_919'
p1855
(lp1856
g4
ag208
ag3
asS'appl_828'
p1857
(lp1858
g144
ag215
ag368
ag5
ag153
asS'appl_829'
p1859
(lp1860
g171
ag85
ag99
ag67
ag3
ag11
asS'appl_1250'
p1861
(lp1862
g192
ag117
ag231
ag232
ag24
ag144
asS'appl_820'
p1863
(lp1864
g279
ag118
ag86
asS'appl_821'
p1865
(lp1866
g91
ag55
ag144
asS'appl_822'
p1867
(lp1868
g198
ag44
ag62
asS'appl_823'
p1869
(lp1870
g225
ag242
ag186
ag278
asS'appl_824'
p1871
(lp1872
g83
ag147
asS'appl_1253'
p1873
(lp1874
g118
ag99
ag147
asS'appl_826'
p1875
(lp1876
g12
ag105
asS'appl_827'
p1877
(lp1878
g82
ag377
asS'appl_849'
p1879
(lp1880
g138
ag171
ag241
ag84
ag105
asS'appl_1259'
p1881
(lp1882
g65
ag92
ag111
ag156
asS'appl_1258'
p1883
(lp1884
g16
ag428
asS'appl_512'
p1885
(lp1886
g92
ag47
ag123
ag231
ag205
asS'appl_1105'
p1887
(lp1888
g48
ag263
ag175
ag161
asS'appl_1104'
p1889
(lp1890
g242
ag118
asS'appl_18'
p1891
(lp1892
g90
ag82
ag34
asS'appl_19'
p1893
(lp1894
g397
ag35
ag439
ag142
ag34
ag130
ag87
asS'appl_1101'
p1895
(lp1896
g3
asS'appl_1100'
p1897
(lp1898
g135
ag47
ag204
ag147
ag11
ag25
ag221
asS'appl_1103'
p1899
(lp1900
g44
ag71
ag266
asS'appl_1102'
p1901
(lp1902
g91
ag215
ag82
asS'appl_12'
p1903
(lp1904
g228
ag143
ag66
ag292
ag33
asS'appl_13'
p1905
(lp1906
g242
ag100
ag397
ag85
ag10
ag279
ag93
asS'appl_10'
p1907
(lp1908
g191
ag44
ag204
ag159
ag380
ag284
asS'appl_11'
p1909
(lp1910
g93
ag85
ag287
asS'appl_16'
p1911
(lp1912
g10
ag104
ag232
asS'appl_17'
p1913
(lp1914
g132
ag48
ag116
asS'appl_14'
p1915
(lp1916
g99
asS'appl_15'
p1917
(lp1918
g182
ag142
ag44
ag72
ag191
asS'appl_844'
p1919
(lp1920
g132
ag30
ag112
ag33
ag117
ag159
asS'appl_517'
p1921
(lp1922
g117
ag178
ag240
ag55
ag182
asS'appl_1574'
p1923
(lp1924
g139
ag231
ag99
ag103
ag91
asS'appl_1575'
p1925
(lp1926
g368
ag84
asS'appl_1576'
p1927
(lp1928
g135
ag56
ag20
ag175
ag161
asS'appl_1577'
p1929
(lp1930
g203
ag279
ag71
ag66
ag5
asS'appl_1570'
p1931
(lp1932
g272
ag119
ag203
ag143
ag90
asS'appl_1571'
p1933
(lp1934
g93
ag183
ag127
asS'appl_1572'
p1935
(lp1936
g5
ag122
ag284
ag78
ag142
ag269
ag87
asS'appl_1573'
p1937
(lp1938
g138
ag397
ag165
asS'appl_1578'
p1939
(lp1940
g14
ag108
ag237
ag198
asS'appl_1579'
p1941
(lp1942
g160
ag54
ag242
ag122
asS'appl_1598'
p1943
(lp1944
g122
ag6
ag232
ag26
ag21
ag35
ag228
asS'appl_1599'
p1945
(lp1946
g147
ag183
ag116
ag108
asS'appl_1592'
p1947
(lp1948
g111
ag150
ag368
ag237
ag218
ag308
ag143
ag178
asS'appl_1593'
p1949
(lp1950
sS'appl_1590'
p1951
(lp1952
g20
ag153
ag4
ag237
asS'appl_1591'
p1953
(lp1954
g104
ag222
ag112
ag41
ag272
asS'appl_1596'
p1955
(lp1956
g205
ag135
ag380
ag186
ag5
ag35
ag168
asS'appl_1597'
p1957
(lp1958
g222
ag46
ag90
ag156
ag428
asS'appl_1594'
p1959
(lp1960
g143
ag203
ag204
ag79
ag263
asS'appl_1595'
p1961
(lp1962
g92
ag38
ag21
ag90
ag175
asS'appl_769'
p1963
(lp1964
g150
ag225
ag56
ag204
ag153
asS'appl_768'
p1965
(lp1966
g183
ag205
ag93
ag273
ag532
asS'appl_767'
p1967
(lp1968
g175
ag24
ag41
asS'appl_766'
p1969
(lp1970
g144
ag70
ag12
asS'appl_765'
p1971
(lp1972
g84
ag29
ag62
ag225
asS'appl_764'
p1973
(lp1974
g130
ag292
ag41
asS'appl_763'
p1975
(lp1976
g175
ag72
ag87
ag46
asS'appl_762'
p1977
(lp1978
g153
asS'appl_761'
p1979
(lp1980
g159
ag92
asS'appl_760'
p1981
(lp1982
g6
ag143
ag164
ag75
ag12
ag20
ag30
ag99
asS'appl_802'
p1983
(lp1984
g165
ag5
ag287
ag156
ag228
ag118
ag192
asS'appl_169'
p1985
(lp1986
g272
ag7
ag218
asS'appl_168'
p1987
(lp1988
g159
ag82
ag165
ag92
ag368
asS'appl_161'
p1989
(lp1990
g113
ag144
ag99
ag377
ag44
ag117
ag124
asS'appl_160'
p1991
(lp1992
g192
ag263
ag116
ag231
ag66
asS'appl_163'
p1993
(lp1994
g279
ag38
ag186
ag266
ag51
ag273
asS'appl_162'
p1995
(lp1996
g171
ag130
ag241
ag225
ag71
ag139
ag222
ag161
ag75
ag218
asS'appl_165'
p1997
(lp1998
g127
ag15
ag175
asS'appl_164'
p1999
(lp2000
g33
ag439
asS'appl_167'
p2001
(lp2002
sS'appl_166'
p2003
(lp2004
g225
ag116
ag150
ag237
ag377
ag87
ag112
ag292
asS'appl_583'
p2005
(lp2006
g79
ag168
ag82
ag131
ag132
asS'appl_582'
p2007
(lp2008
g147
ag241
ag93
ag38
asS'appl_581'
p2009
(lp2010
g171
ag135
ag13
ag113
ag65
ag397
asS'appl_580'
p2011
(lp2012
g439
ag171
ag6
ag62
ag117
asS'appl_587'
p2013
(lp2014
g380
ag10
ag263
ag75
ag191
ag20
ag279
asS'appl_586'
p2015
(lp2016
g272
ag11
ag231
asS'appl_585'
p2017
(lp2018
g205
asS'appl_584'
p2019
(lp2020
g46
ag4
ag279
asS'appl_589'
p2021
(lp2022
sS'appl_588'
p2023
(lp2024
g225
ag56
ag83
ag104
ag150
ag241
ag24
ag65
asS'appl_341'
p2025
(lp2026
g79
ag532
ag19
ag51
ag100
asS'appl_340'
p2027
(lp2028
g231
ag99
ag66
ag41
ag112
asS'appl_611'
p2029
(lp2030
g71
ag99
ag61
ag62
ag94
ag92
ag131
asS'appl_610'
p2031
(lp2032
g156
ag192
ag72
ag5
ag144
ag293
ag25
asS'appl_345'
p2033
(lp2034
g186
ag90
ag10
ag292
asS'appl_344'
p2035
(lp2036
g138
ag99
ag132
ag6
ag147
ag172
ag272
ag56
asS'appl_615'
p2037
(lp2038
g368
ag16
asS'appl_614'
p2039
(lp2040
g79
ag123
ag266
ag135
asS'appl_349'
p2041
(lp2042
g66
ag186
ag240
ag7
ag104
asS'appl_348'
p2043
(lp2044
g66
ag168
ag175
ag241
ag84
ag72
asS'appl_619'
p2045
(lp2046
g240
ag66
asS'appl_618'
p2047
(lp2048
g119
ag91
ag131
ag21
ag205
ag35
ag208
ag45
asS'appl_644'
p2049
(lp2050
g47
ag13
ag33
ag241
asS'appl_299'
p2051
(lp2052
g172
ag218
ag380
asS'appl_298'
p2053
(lp2054
g130
ag153
asS'appl_297'
p2055
(lp2056
g269
ag20
asS'appl_296'
p2057
(lp2058
g105
ag11
ag71
asS'appl_295'
p2059
(lp2060
g79
asS'appl_294'
p2061
(lp2062
g24
ag10
ag131
ag397
ag29
asS'appl_293'
p2063
(lp2064
g237
ag135
ag156
asS'appl_292'
p2065
(lp2066
g231
ag172
ag87
ag123
asS'appl_291'
p2067
(lp2068
g108
ag61
ag65
asS'appl_290'
p2069
(lp2070
g45
ag156
ag269
ag221
ag186
asS'appl_647'
p2071
(lp2072
g127
ag55
ag30
ag266
ag12
asS'appl_1378'
p2073
(lp2074
g153
ag208
ag191
ag135
asS'appl_1379'
p2075
(lp2076
g368
ag323
ag19
asS'appl_1376'
p2077
(lp2078
g87
ag4
ag20
ag33
asS'appl_640'
p2079
(lp2080
g21
ag82
ag130
ag132
ag104
asS'appl_1374'
p2081
(lp2082
g205
ag82
ag279
ag100
asS'appl_1375'
p2083
(lp2084
g48
ag232
ag45
asS'appl_1372'
p2085
(lp2086
g272
ag323
ag273
asS'appl_1373'
p2087
(lp2088
g61
ag51
ag171
asS'appl_1370'
p2089
(lp2090
g19
ag3
ag6
ag164
asS'appl_641'
p2091
(lp2092
g183
ag86
ag131
ag279
asS'appl_642'
p2093
(lp2094
g108
ag263
ag131
ag156
ag41
asS'appl_643'
p2095
(lp2096
g26
ag99
ag83
ag231
asS'appl_907'
p2097
(lp2098
g377
ag161
ag279
ag183
ag5
ag168
asS'appl_906'
p2099
(lp2100
g47
ag16
ag41
ag66
ag72
ag279
ag160
asS'appl_905'
p2101
(lp2102
g44
ag94
ag293
ag231
ag266
ag85
ag11
ag4
asS'appl_904'
p2103
(lp2104
g266
ag160
ag150
ag70
ag203
ag24
asS'appl_903'
p2105
(lp2106
g147
ag175
ag292
ag103
ag323
asS'appl_902'
p2107
(lp2108
g29
ag11
ag221
ag397
asS'appl_901'
p2109
(lp2110
g61
ag99
ag273
asS'appl_900'
p2111
(lp2112
g222
ag380
ag228
ag38
asS'appl_909'
p2113
(lp2114
g182
ag56
ag138
ag159
ag75
ag172
asS'appl_908'
p2115
(lp2116
g144
ag266
ag6
ag323
ag204
asS'appl_839'
p2117
(lp2118
g195
ag78
ag56
ag198
ag323
asS'appl_838'
p2119
(lp2120
g323
ag13
ag35
ag215
ag143
ag75
asS'appl_833'
p2121
(lp2122
g13
ag118
ag195
ag48
asS'appl_832'
p2123
(lp2124
g272
asS'appl_831'
p2125
(lp2126
g99
ag368
asS'appl_830'
p2127
(lp2128
g19
ag204
ag75
ag127
ag79
ag26
ag100
ag61
ag46
ag308
ag240
ag11
asS'appl_837'
p2129
(lp2130
g54
ag150
ag29
asS'appl_836'
p2131
(lp2132
g100
ag124
ag225
ag105
asS'appl_835'
p2133
(lp2134
g15
ag82
ag284
ag117
ag41
ag79
ag100
asS'appl_834'
p2135
(lp2136
g203
ag12
ag4
ag191
ag153
asS'appl_1116'
p2137
(lp2138
g144
ag132
ag172
ag41
ag116
ag130
ag123
ag143
ag62
asS'appl_1117'
p2139
(lp2140
g292
ag287
ag380
ag75
ag92
ag66
asS'appl_1114'
p2141
(lp2142
g143
ag273
ag26
asS'appl_1115'
p2143
(lp2144
g165
ag44
ag147
ag86
ag67
asS'appl_1112'
p2145
(lp2146
g25
ag99
ag26
ag266
ag377
asS'appl_1113'
p2147
(lp2148
g111
ag75
ag160
ag221
ag25
asS'appl_1110'
p2149
(lp2150
g85
ag135
ag439
ag48
ag4
ag272
ag113
asS'appl_1111'
p2151
(lp2152
g33
ag183
ag55
ag143
ag208
ag171
asS'appl_1118'
p2153
(lp2154
g85
ag7
asS'appl_1119'
p2155
(lp2156
g308
ag118
asS'appl_1206'
p2157
(lp2158
g111
ag279
ag225
ag47
asS'appl_1207'
p2159
(lp2160
g287
ag178
ag380
asS'appl_1204'
p2161
(lp2162
g272
ag240
ag532
ag222
ag139
ag5
asS'appl_1205'
p2163
(lp2164
g99
ag278
ag284
ag279
ag10
ag428
ag228
asS'appl_1202'
p2165
(lp2166
g143
ag61
asS'appl_1203'
p2167
(lp2168
g292
ag41
ag84
ag99
ag308
ag61
ag90
ag186
asS'appl_1200'
p2169
(lp2170
g82
ag15
asS'appl_1201'
p2171
(lp2172
g70
ag278
ag222
ag108
asS'appl_752'
p2173
(lp2174
sS'appl_753'
p2175
(lp2176
g6
ag117
ag204
ag132
asS'appl_750'
p2177
(lp2178
g45
ag51
ag182
ag168
asS'appl_751'
p2179
(lp2180
g44
ag82
ag24
ag222
ag20
asS'appl_756'
p2181
(lp2182
g132
ag33
ag368
asS'appl_757'
p2183
(lp2184
g272
ag4
asS'appl_754'
p2185
(lp2186
g377
ag30
ag38
asS'appl_755'
p2187
(lp2188
g266
ag16
ag273
ag82
ag34
ag377
ag269
asS'appl_758'
p2189
(lp2190
g75
ag48
ag66
ag93
asS'appl_759'
p2191
(lp2192
g72
ag119
ag84
ag203
ag5
ag111
asS'appl_343'
p2193
(lp2194
g273
ag278
ag178
ag91
ag439
asS'appl_118'
p2195
(lp2196
g164
ag144
ag273
ag218
asS'appl_119'
p2197
(lp2198
g198
ag124
ag29
ag263
ag3
asS'appl_114'
p2199
(lp2200
g439
ag11
ag71
ag48
ag75
ag144
asS'appl_115'
p2201
(lp2202
g118
ag124
ag218
asS'appl_116'
p2203
(lp2204
g91
ag144
ag292
ag6
asS'appl_117'
p2205
(lp2206
g203
ag284
ag242
ag92
asS'appl_110'
p2207
(lp2208
g242
ag82
ag112
ag225
ag380
ag183
asS'appl_111'
p2209
(lp2210
g263
ag66
ag65
asS'appl_112'
p2211
(lp2212
g397
ag16
asS'appl_113'
p2213
(lp2214
g308
ag147
ag175
asS'appl_334'
p2215
(lp2216
g34
ag118
ag16
ag172
ag237
ag119
asS'appl_335'
p2217
(lp2218
g278
ag228
ag94
ag279
ag160
ag78
asS'appl_336'
p2219
(lp2220
g15
ag273
asS'appl_337'
p2221
(lp2222
g323
ag439
ag242
ag100
asS'appl_330'
p2223
(lp2224
g182
ag532
ag24
asS'appl_331'
p2225
(lp2226
g153
ag86
ag103
asS'appl_332'
p2227
(lp2228
g195
ag178
ag156
ag62
asS'appl_333'
p2229
(lp2230
g86
ag67
asS'appl_338'
p2231
(lp2232
g78
ag13
ag65
asS'appl_339'
p2233
(lp2234
g263
ag44
ag61
ag156
ag278
ag147
asS'appl_628'
p2235
(lp2236
g112
ag183
asS'appl_629'
p2237
(lp2238
g208
ag113
ag111
asS'appl_1343'
p2239
(lp2240
g175
ag119
ag65
ag165
ag186
ag179
ag35
ag61
ag25
asS'appl_1342'
p2241
(lp2242
g272
ag4
ag25
ag103
ag84
asS'appl_1341'
p2243
(lp2244
g171
ag143
ag118
asS'appl_1340'
p2245
(lp2246
g237
ag38
ag287
ag292
ag82
asS'appl_1347'
p2247
(lp2248
g83
ag13
ag51
ag192
asS'appl_1346'
p2249
(lp2250
g240
ag532
ag147
ag215
ag24
ag119
ag242
asS'appl_1345'
p2251
(lp2252
g56
ag41
ag91
ag25
ag204
ag84
ag54
ag168
asS'appl_1344'
p2253
(lp2254
g105
ag159
ag26
ag380
ag100
asS'appl_1349'
p2255
(lp2256
g131
ag47
ag38
ag186
ag147
ag15
ag175
asS'appl_1348'
p2257
(lp2258
g191
asS'appl_248'
p2259
(lp2260
g208
ag161
ag30
ag93
ag24
ag272
asS'appl_249'
p2261
(lp2262
g75
ag143
ag54
ag46
ag279
ag272
asS'appl_938'
p2263
(lp2264
g21
ag55
ag171
ag25
asS'appl_939'
p2265
(lp2266
g66
ag150
ag205
ag62
ag273
ag191
ag159
asS'appl_240'
p2267
(lp2268
g118
ag232
ag72
ag112
asS'appl_241'
p2269
(lp2270
g44
ag266
ag65
asS'appl_242'
p2271
(lp2272
g38
ag62
ag150
ag192
ag159
asS'appl_931'
p2273
(lp2274
g130
ag144
ag29
ag225
asS'appl_244'
p2275
(lp2276
g5
ag55
ag70
ag279
ag24
ag171
asS'appl_937'
p2277
(lp2278
g24
ag192
ag231
ag65
ag323
ag16
ag241
asS'appl_934'
p2279
(lp2280
g179
asS'appl_935'
p2281
(lp2282
g117
ag203
ag82
asS'appl_981'
p2283
(lp2284
g130
ag144
ag104
ag218
ag85
asS'appl_1295'
p2285
(lp2286
g48
ag72
ag78
asS'appl_1294'
p2287
(lp2288
g191
ag112
ag368
asS'appl_1297'
p2289
(lp2290
g7
ag112
ag156
ag284
ag13
asS'appl_1296'
p2291
(lp2292
g192
ag116
ag273
ag240
ag26
ag263
ag94
ag237
asS'appl_1291'
p2293
(lp2294
g231
ag203
ag204
asS'appl_1290'
p2295
(lp2296
g19
ag20
ag90
ag54
ag38
asS'appl_1293'
p2297
(lp2298
g175
ag159
ag20
asS'appl_809'
p2299
(lp2300
g368
ag273
ag237
ag75
asS'appl_806'
p2301
(lp2302
g82
ag15
ag72
asS'appl_807'
p2303
(lp2304
g439
ag241
ag70
asS'appl_804'
p2305
(lp2306
g308
ag397
asS'appl_805'
p2307
(lp2308
g94
ag439
ag175
ag61
asS'appl_1299'
p2309
(lp2310
g195
ag439
ag20
asS'appl_803'
p2311
(lp2312
g65
ag287
ag242
ag377
ag79
ag7
ag5
asS'appl_800'
p2313
(lp2314
g130
ag66
ag284
ag127
asS'appl_801'
p2315
(lp2316
g161
ag111
ag150
ag263
asS'appl_1129'
p2317
(lp2318
g439
asS'appl_1128'
p2319
(lp2320
g25
ag90
ag123
ag135
asS'appl_1'
p2321
(lp2322
g12
ag143
ag165
ag66
ag7
asS'appl_1123'
p2323
(lp2324
g377
ag215
ag116
asS'appl_1122'
p2325
(lp2326
g10
ag122
ag172
ag182
ag99
asS'appl_1121'
p2327
(lp2328
g182
ag10
asS'appl_1120'
p2329
(lp2330
g51
ag232
ag279
ag84
asS'appl_1127'
p2331
(lp2332
g143
ag186
ag85
ag228
ag218
ag232
ag380
asS'appl_1126'
p2333
(lp2334
g195
ag150
asS'appl_1125'
p2335
(lp2336
g130
ag292
asS'appl_1124'
p2337
(lp2338
g119
ag269
ag25
ag191
ag20
ag41
asS'appl_7'
p2339
(lp2340
g72
ag71
ag221
asS'appl_745'
p2341
(lp2342
g65
ag159
ag266
ag368
ag33
asS'appl_744'
p2343
(lp2344
g72
ag34
ag44
ag75
ag225
asS'appl_747'
p2345
(lp2346
g48
ag131
ag25
asS'appl_746'
p2347
(lp2348
g272
ag116
ag105
ag138
ag231
ag218
ag175
asS'appl_741'
p2349
(lp2350
g182
ag135
asS'appl_740'
p2351
(lp2352
g287
ag182
ag111
ag103
asS'appl_743'
p2353
(lp2354
g278
ag112
ag85
ag25
asS'appl_742'
p2355
(lp2356
g7
ag54
asS'appl_749'
p2357
(lp2358
g103
ag7
ag225
ag62
ag90
asS'appl_748'
p2359
(lp2360
g86
ag266
ag160
ag92
ag99
asS'appl_109'
p2361
(lp2362
g147
ag118
ag175
ag61
ag72
ag86
asS'appl_108'
p2363
(lp2364
g78
ag269
ag228
asS'appl_107'
p2365
(lp2366
g156
ag46
ag323
ag144
asS'appl_106'
p2367
(lp2368
g108
ag72
asS'appl_105'
p2369
(lp2370
g105
ag198
ag119
ag156
ag75
ag142
ag127
asS'appl_104'
p2371
(lp2372
g33
ag397
ag122
ag48
asS'appl_103'
p2373
(lp2374
g55
ag287
ag82
ag232
ag377
ag87
asS'appl_102'
p2375
(lp2376
g91
ag48
ag272
ag79
ag86
asS'appl_101'
p2377
(lp2378
g111
ag287
ag218
asS'appl_100'
p2379
(lp2380
g164
ag99
ag124
ag122
ag11
ag221
asS'appl_639'
p2381
(lp2382
g171
ag144
ag263
ag323
ag62
ag7
asS'appl_638'
p2383
(lp2384
g287
ag215
ag83
asS'appl_631'
p2385
(lp2386
g237
asS'appl_630'
p2387
(lp2388
g368
ag143
ag182
asS'appl_633'
p2389
(lp2390
g203
ag428
ag24
ag131
ag103
ag123
ag222
ag13
asS'appl_632'
p2391
(lp2392
g5
ag293
asS'appl_635'
p2393
(lp2394
g263
ag41
ag241
ag70
asS'appl_634'
p2395
(lp2396
g19
ag228
ag131
ag91
ag70
ag139
asS'appl_637'
p2397
(lp2398
g532
ag161
ag14
ag19
asS'appl_636'
p2399
(lp2400
g147
ag79
ag191
ag205
ag132
ag138
asS'appl_327'
p2401
(lp2402
g183
ag7
ag222
asS'appl_326'
p2403
(lp2404
g93
ag179
ag124
asS'appl_325'
p2405
(lp2406
g54
ag208
ag20
asS'appl_324'
p2407
(lp2408
g263
ag5
ag143
asS'appl_323'
p2409
(lp2410
sS'appl_322'
p2411
(lp2412
g15
ag117
ag119
ag103
ag278
ag44
ag38
asS'appl_321'
p2413
(lp2414
g380
ag14
asS'appl_320'
p2415
(lp2416
g171
ag111
ag20
ag144
asS'appl_329'
p2417
(lp2418
g117
ag147
ag232
ag13
ag20
ag100
asS'appl_328'
p2419
(lp2420
g172
ag241
asS'appl_1354'
p2421
(lp2422
g66
ag11
ag178
ag6
asS'appl_1355'
p2423
(lp2424
g16
ag179
ag5
ag208
ag175
ag13
asS'appl_1356'
p2425
(lp2426
g377
ag13
ag266
ag139
asS'appl_1357'
p2427
(lp2428
g33
ag179
ag159
ag87
ag132
asS'appl_1350'
p2429
(lp2430
g242
ag12
ag84
ag29
asS'appl_1351'
p2431
(lp2432
g14
ag82
asS'appl_1352'
p2433
(lp2434
g160
ag14
asS'appl_1353'
p2435
(lp2436
g113
ag144
ag54
ag82
ag138
asS'appl_1358'
p2437
(lp2438
g84
asS'appl_1359'
p2439
(lp2440
g91
ag221
ag54
ag66
ag160
asS'appl_259'
p2441
(lp2442
g532
ag116
ag130
ag5
asS'appl_258'
p2443
(lp2444
g139
ag70
ag34
ag20
ag44
asS'appl_929'
p2445
(lp2446
g127
ag71
ag186
ag150
ag204
asS'appl_928'
p2447
(lp2448
g29
ag144
ag240
ag61
ag91
ag131
ag7
asS'appl_925'
p2449
(lp2450
g147
asS'appl_924'
p2451
(lp2452
g84
ag161
asS'appl_927'
p2453
(lp2454
g10
ag179
ag138
ag15
ag61
asS'appl_926'
p2455
(lp2456
g142
ag183
ag100
asS'appl_921'
p2457
(lp2458
g178
ag99
ag228
ag292
ag130
ag198
asS'appl_920'
p2459
(lp2460
g118
ag14
ag35
ag29
ag172
ag44
asS'appl_923'
p2461
(lp2462
g62
ag25
ag183
ag7
asS'appl_922'
p2463
(lp2464
g105
ag266
ag323
asS'appl_1286'
p2465
(lp2466
sS'appl_1287'
p2467
(lp2468
g192
ag150
ag24
ag112
asS'appl_813'
p2469
(lp2470
g147
ag218
ag269
ag215
asS'appl_812'
p2471
(lp2472
g71
ag83
ag323
asS'appl_815'
p2473
(lp2474
g116
ag240
asS'appl_1283'
p2475
(lp2476
g65
ag171
ag204
ag175
asS'appl_817'
p2477
(lp2478
g62
ag171
ag41
ag272
asS'appl_1281'
p2479
(lp2480
g117
ag368
ag10
asS'appl_819'
p2481
(lp2482
g284
asS'appl_818'
p2483
(lp2484
g204
asS'appl_1288'
p2485
(lp2486
g71
ag30
ag66
ag179
ag4
ag113
asS'appl_1289'
p2487
(lp2488
g41
ag117
ag35
ag65
asS'appl_987'
p2489
(lp2490
g131
ag147
asS'appl_986'
p2491
(lp2492
g12
ag165
asS'appl_985'
p2493
(lp2494
g84
ag380
ag29
ag168
asS'appl_984'
p2495
(lp2496
g228
ag269
ag237
ag172
ag221
ag19
asS'appl_983'
p2497
(lp2498
g108
ag72
ag144
ag14
ag78
asS'appl_982'
p2499
(lp2500
g231
ag269
ag94
asS'appl_1138'
p2501
(lp2502
g168
ag38
ag221
ag292
asS'appl_1139'
p2503
(lp2504
g218
ag20
asS'appl_1134'
p2505
(lp2506
g232
ag240
ag323
ag82
ag46
ag377
asS'appl_1135'
p2507
(lp2508
g90
ag62
ag232
asS'appl_1136'
p2509
(lp2510
g130
ag51
ag10
ag380
ag6
ag165
asS'appl_1137'
p2511
(lp2512
g205
ag93
ag83
ag161
ag14
ag84
ag171
asS'appl_1130'
p2513
(lp2514
g56
ag273
ag62
ag113
ag138
ag90
ag119
asS'appl_1131'
p2515
(lp2516
g78
ag7
ag105
ag179
ag138
ag5
ag79
ag428
asS'appl_1132'
p2517
(lp2518
g143
ag130
ag44
ag242
asS'appl_1133'
p2519
(lp2520
g78
ag231
ag287
asS'appl_626'
p2521
(lp2522
g20
ag3
ag87
ag439
ag221
asS'appl_627'
p2523
(lp2524
g204
ag65
ag47
ag218
asS'appl_624'
p2525
(lp2526
g86
ag19
ag47
ag67
asS'appl_625'
p2527
(lp2528
g221
ag122
ag34
asS'appl_622'
p2529
(lp2530
g111
ag138
ag12
asS'appl_623'
p2531
(lp2532
g84
ag380
ag38
ag161
asS'appl_620'
p2533
(lp2534
g111
ag55
ag368
ag104
ag14
ag272
ag131
ag231
asS'appl_621'
p2535
(lp2536
g150
ag56
ag87
asS'appl_501'
p2537
(lp2538
g72
ag284
ag94
ag428
ag221
ag263
asS'appl_500'
p2539
(lp2540
g397
ag5
ag165
ag123
asS'appl_645'
p2541
(lp2542
g218
ag78
asS'appl_646'
p2543
(lp2544
g51
ag263
ag26
ag103
ag266
asS'appl_1431'
p2545
(lp2546
g33
ag54
ag99
ag183
ag131
ag218
ag138
asS'appl_1430'
p2547
(lp2548
g51
ag124
ag35
ag47
ag377
ag215
ag127
ag266
asS'appl_1433'
p2549
(lp2550
g124
ag111
asS'appl_1432'
p2551
(lp2552
g20
ag292
ag122
ag54
ag55
ag160
asS'appl_1435'
p2553
(lp2554
g35
ag272
ag215
ag94
ag183
ag284
asS'appl_1434'
p2555
(lp2556
g117
ag14
ag532
asS'appl_1437'
p2557
(lp2558
g195
ag90
ag113
asS'appl_1436'
p2559
(lp2560
g100
ag192
ag439
ag118
ag82
asS'appl_1439'
p2561
(lp2562
g368
ag90
ag153
ag44
ag377
ag380
asS'appl_1438'
p2563
(lp2564
g44
ag123
ag56
asS'appl_253'
p2565
(lp2566
g263
ag65
ag161
asS'appl_252'
p2567
(lp2568
g221
ag5
asS'appl_132'
p2569
(lp2570
g82
ag132
ag90
ag178
ag293
ag228
asS'appl_133'
p2571
(lp2572
g178
ag83
ag72
asS'appl_130'
p2573
(lp2574
g30
ag10
ag186
ag380
ag242
asS'appl_131'
p2575
(lp2576
g26
ag273
ag83
asS'appl_136'
p2577
(lp2578
g78
ag204
asS'appl_137'
p2579
(lp2580
g231
asS'appl_134'
p2581
(lp2582
g144
ag91
ag164
asS'appl_135'
p2583
(lp2584
g25
asS'appl_138'
p2585
(lp2586
g144
ag186
ag24
ag142
ag84
asS'appl_139'
p2587
(lp2588
g41
ag116
ag93
asS'appl_318'
p2589
(lp2590
g160
ag54
ag51
ag273
ag195
asS'appl_319'
p2591
(lp2592
g182
ag105
ag70
ag204
asS'appl_648'
p2593
(lp2594
g228
asS'appl_649'
p2595
(lp2596
g119
ag20
asS'appl_312'
p2597
(lp2598
g144
ag105
ag14
ag46
ag175
ag284
asS'appl_313'
p2599
(lp2600
g156
asS'appl_310'
p2601
(lp2602
g439
ag132
ag55
asS'appl_311'
p2603
(lp2604
g168
ag30
ag82
asS'appl_316'
p2605
(lp2606
g159
ag11
ag147
ag93
ag186
ag439
asS'appl_317'
p2607
(lp2608
g67
ag186
ag103
asS'appl_314'
p2609
(lp2610
g3
ag113
ag112
ag237
asS'appl_315'
p2611
(lp2612
g118
ag85
asS'appl_518'
p2613
(lp2614
g90
ag11
ag83
ag54
asS'appl_1298'
p2615
(lp2616
g117
ag183
ag29
ag11
asS'appl_488'
p2617
(lp2618
g215
ag439
ag86
ag130
ag105
asS'appl_489'
p2619
(lp2620
g191
ag168
ag292
asS'appl_482'
p2621
(lp2622
g71
ag6
ag205
asS'appl_483'
p2623
(lp2624
g183
ag150
ag71
ag532
asS'appl_480'
p2625
(lp2626
g94
asS'appl_481'
p2627
(lp2628
g75
ag44
ag87
ag55
ag103
ag138
asS'appl_486'
p2629
(lp2630
g11
ag61
ag78
ag108
asS'appl_487'
p2631
(lp2632
g79
ag208
asS'appl_484'
p2633
(lp2634
g21
ag119
ag14
ag46
ag168
asS'appl_485'
p2635
(lp2636
g160
ag79
ag377
ag90
ag122
ag135
asS'appl_1150'
p2637
(lp2638
g67
ag139
asS'appl_28'
p2639
(lp2640
g105
ag54
ag113
ag83
asS'appl_932'
p2641
(lp2642
g3
ag241
ag130
ag25
asS'appl_268'
p2643
(lp2644
g86
ag75
ag130
asS'appl_269'
p2645
(lp2646
g48
ag273
ag150
ag183
ag428
ag61
ag266
asS'appl_266'
p2647
(lp2648
g118
ag215
ag83
ag182
ag171
ag179
asS'appl_267'
p2649
(lp2650
g55
ag160
ag171
ag123
ag16
ag79
asS'appl_264'
p2651
(lp2652
g34
ag41
ag308
ag203
ag71
ag293
ag79
ag228
asS'appl_265'
p2653
(lp2654
g90
asS'appl_262'
p2655
(lp2656
g164
ag67
ag439
ag123
asS'appl_263'
p2657
(lp2658
g232
ag160
ag91
asS'appl_260'
p2659
(lp2660
g116
ag5
ag84
ag439
ag135
ag10
ag144
asS'appl_261'
p2661
(lp2662
g82
ag195
ag111
ag13
ag35
ag84
asS'appl_243'
p2663
(lp2664
g30
ag123
ag215
asS'appl_798'
p2665
(lp2666
g215
ag119
ag266
asS'appl_799'
p2667
(lp2668
g377
ag192
ag222
ag78
asS'appl_796'
p2669
(lp2670
g204
ag71
ag90
ag112
ag237
ag117
ag5
ag222
ag266
ag93
asS'appl_797'
p2671
(lp2672
g44
ag222
ag75
ag284
asS'appl_794'
p2673
(lp2674
g85
ag66
ag266
ag263
ag61
ag323
asS'appl_795'
p2675
(lp2676
sS'appl_792'
p2677
(lp2678
g84
ag127
ag67
ag72
ag279
ag112
asS'appl_793'
p2679
(lp2680
g118
ag44
ag127
asS'appl_790'
p2681
(lp2682
g85
ag156
ag439
ag21
asS'appl_791'
p2683
(lp2684
g308
ag33
asS'appl_246'
p2685
(lp2686
g15
ag65
ag287
ag164
ag439
asS'appl_247'
p2687
(lp2688
g82
ag153
ag171
ag130
asS'appl_864'
p2689
(lp2690
g45
ag292
ag48
ag66
ag127
asS'appl_865'
p2691
(lp2692
g397
ag380
ag111
ag232
ag48
ag242
ag46
asS'appl_866'
p2693
(lp2694
g127
asS'appl_867'
p2695
(lp2696
g147
ag308
ag218
ag113
ag83
ag119
asS'appl_860'
p2697
(lp2698
g70
ag237
asS'appl_861'
p2699
(lp2700
g111
ag161
asS'appl_862'
p2701
(lp2702
g84
ag428
ag116
ag368
ag72
ag65
asS'appl_863'
p2703
(lp2704
g292
ag308
ag130
ag159
ag86
ag92
asS'appl_868'
p2705
(lp2706
g278
ag26
ag91
ag175
ag242
ag100
asS'appl_869'
p2707
(lp2708
g164
ag147
ag215
asS'appl_1389'
p2709
(lp2710
g122
ag273
asS'appl_1388'
p2711
(lp2712
g242
ag222
ag103
ag116
ag172
asS'appl_1387'
p2713
(lp2714
g377
ag127
ag51
ag191
ag11
ag85
ag278
asS'appl_1386'
p2715
(lp2716
g67
asS'appl_1385'
p2717
(lp2718
g192
ag83
ag179
asS'appl_1384'
p2719
(lp2720
g171
ag116
ag30
ag24
asS'appl_1383'
p2721
(lp2722
g241
ag323
ag165
ag79
asS'appl_1382'
p2723
(lp2724
g293
ag91
ag33
ag269
ag191
ag242
asS'appl_1381'
p2725
(lp2726
g279
ag380
ag323
ag30
ag183
asS'appl_1380'
p2727
(lp2728
g377
ag108
asS'appl_510'
p2729
(lp2730
g232
ag124
ag33
ag5
asS'appl_511'
p2731
(lp2732
g44
ag5
ag20
asS'appl_1422'
p2733
(lp2734
g241
ag204
ag99
ag83
ag323
ag16
ag124
asS'appl_1423'
p2735
(lp2736
g132
ag21
ag24
ag41
ag47
asS'appl_1420'
p2737
(lp2738
g11
ag48
ag221
ag119
ag142
ag144
ag135
ag380
asS'appl_1421'
p2739
(lp2740
g30
ag131
ag13
ag218
ag10
ag112
asS'appl_1426'
p2741
(lp2742
g323
ag439
ag191
ag55
asS'appl_1427'
p2743
(lp2744
g123
ag165
ag117
ag3
ag308
asS'appl_1424'
p2745
(lp2746
g111
ag70
asS'appl_1425'
p2747
(lp2748
g72
ag179
ag30
ag142
ag90
ag132
ag240
ag24
ag61
ag203
asS'appl_1428'
p2749
(lp2750
g240
ag14
ag16
ag323
asS'appl_1429'
p2751
(lp2752
g91
ag66
ag273
ag428
ag33
asS'appl_773'
p2753
(lp2754
g241
ag203
ag130
ag228
ag26
asS'appl_808'
p2755
(lp2756
g179
ag34
ag231
asS'appl_1292'
p2757
(lp2758
g377
asS'appl_125'
p2759
(lp2760
g26
ag14
ag20
ag5
ag48
ag55
asS'appl_124'
p2761
(lp2762
g65
ag12
ag14
ag168
ag428
ag72
asS'appl_127'
p2763
(lp2764
g269
ag198
ag45
ag186
asS'appl_126'
p2765
(lp2766
g323
ag15
ag13
ag25
ag93
ag11
asS'appl_121'
p2767
(lp2768
g35
ag86
ag93
ag263
asS'appl_120'
p2769
(lp2770
g182
ag292
ag67
ag21
ag84
asS'appl_123'
p2771
(lp2772
g12
ag156
asS'appl_122'
p2773
(lp2774
g130
ag368
ag85
ag150
ag112
asS'appl_129'
p2775
(lp2776
g232
asS'appl_128'
p2777
(lp2778
g46
ag135
ag308
ag38
asS'appl_309'
p2779
(lp2780
g62
ag292
ag112
ag186
ag161
ag272
asS'appl_308'
p2781
(lp2782
g86
ag293
asS'appl_659'
p2783
(lp2784
g100
ag85
ag78
ag91
ag21
ag532
ag108
asS'appl_658'
p2785
(lp2786
g269
ag263
ag195
ag99
asS'appl_305'
p2787
(lp2788
g21
ag228
asS'appl_304'
p2789
(lp2790
g123
ag278
ag29
ag24
ag119
asS'appl_307'
p2791
(lp2792
g323
ag203
ag532
ag139
asS'appl_306'
p2793
(lp2794
g380
ag33
ag159
ag113
asS'appl_301'
p2795
(lp2796
g161
ag70
ag532
ag26
asS'appl_300'
p2797
(lp2798
g241
ag75
ag108
asS'appl_303'
p2799
(lp2800
g10
ag72
ag61
ag47
asS'appl_302'
p2801
(lp2802
g138
ag272
ag111
ag33
ag90
ag287
asS'appl_499'
p2803
(lp2804
g168
ag116
ag159
ag175
ag132
ag104
asS'appl_498'
p2805
(lp2806
g33
ag51
ag284
asS'appl_495'
p2807
(lp2808
g29
ag204
asS'appl_494'
p2809
(lp2810
g67
ag93
asS'appl_497'
p2811
(lp2812
g428
ag119
ag38
ag240
ag62
ag47
asS'appl_496'
p2813
(lp2814
g377
ag16
ag62
ag70
ag218
asS'appl_491'
p2815
(lp2816
g19
ag79
ag284
asS'appl_490'
p2817
(lp2818
g273
ag428
ag91
ag171
ag124
ag150
ag131
ag92
ag84
ag308
asS'appl_493'
p2819
(lp2820
g30
ag70
ag240
ag56
ag221
ag54
ag124
asS'appl_492'
p2821
(lp2822
g293
ag54
ag215
asS'appl_271'
p2823
(lp2824
g87
ag165
ag242
ag153
asS'appl_270'
p2825
(lp2826
g10
ag242
ag29
ag70
asS'appl_273'
p2827
(lp2828
g139
ag72
ag156
ag205
asS'appl_272'
p2829
(lp2830
g5
ag323
ag55
ag144
ag86
ag84
asS'appl_275'
p2831
(lp2832
g139
ag25
ag83
ag13
ag44
ag232
asS'appl_274'
p2833
(lp2834
g90
ag26
ag84
ag92
asS'appl_277'
p2835
(lp2836
g293
ag203
ag232
asS'appl_276'
p2837
(lp2838
g79
ag93
ag20
ag54
asS'appl_279'
p2839
(lp2840
g38
ag47
ag24
ag92
ag67
ag105
asS'appl_278'
p2841
(lp2842
g439
ag138
ag160
asS'appl_781'
p2843
(lp2844
g284
ag103
ag279
asS'appl_780'
p2845
(lp2846
g86
ag228
ag15
ag397
ag380
asS'appl_783'
p2847
(lp2848
g308
ag34
ag10
asS'appl_782'
p2849
(lp2850
g150
ag20
ag90
asS'appl_785'
p2851
(lp2852
g131
ag86
ag150
asS'appl_784'
p2853
(lp2854
g368
ag205
ag240
ag143
ag113
ag93
asS'appl_787'
p2855
(lp2856
g179
ag19
ag108
ag94
ag103
ag117
asS'appl_786'
p2857
(lp2858
g221
ag24
ag186
ag4
ag124
ag131
ag30
asS'appl_789'
p2859
(lp2860
g127
ag532
asS'appl_788'
p2861
(lp2862
g83
ag86
asS'appl_245'
p2863
(lp2864
g90
ag308
ag124
asS'appl_877'
p2865
(lp2866
g55
ag368
ag323
ag117
ag172
ag104
ag4
asS'appl_876'
p2867
(lp2868
g47
ag215
ag186
ag263
ag48
asS'appl_875'
p2869
(lp2870
g156
ag67
ag14
ag186
ag215
ag218
asS'appl_874'
p2871
(lp2872
g103
ag112
ag26
ag116
asS'appl_873'
p2873
(lp2874
g13
ag86
ag78
ag124
ag143
asS'appl_872'
p2875
(lp2876
g13
ag104
ag72
asS'appl_871'
p2877
(lp2878
g72
ag182
asS'appl_870'
p2879
(lp2880
g16
ag83
ag3
ag237
ag26
asS'appl_879'
p2881
(lp2882
g131
ag86
ag377
asS'appl_878'
p2883
(lp2884
g231
ag377
ag165
ag293
ag19
ag118
ag86
asS'appl_1390'
p2885
(lp2886
g192
ag103
ag13
ag71
asS'appl_1391'
p2887
(lp2888
g15
ag12
ag237
ag218
asS'appl_1392'
p2889
(lp2890
g231
ag92
ag144
ag46
asS'appl_1393'
p2891
(lp2892
g10
asS'appl_1394'
p2893
(lp2894
g62
ag15
ag240
ag3
ag218
asS'appl_1395'
p2895
(lp2896
g428
ag82
ag192
asS'appl_1396'
p2897
(lp2898
g397
ag93
ag21
ag45
ag78
ag240
asS'appl_1397'
p2899
(lp2900
g150
ag65
ag4
ag38
ag11
ag182
ag192
ag100
ag380
asS'appl_1398'
p2901
(lp2902
g62
ag111
ag7
ag284
ag150
ag380
asS'appl_1399'
p2903
(lp2904
g48
ag38
ag46
ag186
ag269
ag183
asS'appl_592'
p2905
(lp2906
g292
ag143
ag83
ag242
asS'appl_85'
p2907
(lp2908
g78
ag108
asS'appl_84'
p2909
(lp2910
g78
ag222
ag82
ag34
asS'appl_87'
p2911
(lp2912
g3
ag171
ag242
ag12
asS'appl_86'
p2913
(lp2914
g179
ag222
ag104
ag159
ag82
asS'appl_81'
p2915
(lp2916
g12
ag45
ag24
ag147
asS'appl_80'
p2917
(lp2918
g112
ag105
ag123
ag293
ag94
asS'appl_83'
p2919
(lp2920
g222
ag203
ag228
ag5
asS'appl_82'
p2921
(lp2922
g179
ag292
ag218
ag397
ag222
ag130
ag308
asS'appl_89'
p2923
(lp2924
g30
ag47
ag241
asS'appl_88'
p2925
(lp2926
g62
ag66
ag30
ag287
asS'appl_212'
p2927
(lp2928
g75
ag323
ag208
ag79
asS'appl_358'
p2929
(lp2930
g38
ag79
ag116
ag34
ag48
asS'appl_359'
p2931
(lp2932
g179
ag55
ag195
ag104
ag428
ag225
asS'appl_356'
p2933
(lp2934
g168
ag222
ag323
ag108
ag139
ag119
ag111
asS'appl_357'
p2935
(lp2936
g78
ag56
ag24
ag84
ag532
asS'appl_1417'
p2937
(lp2938
g30
ag242
ag12
ag143
ag104
ag75
ag66
asS'appl_1416'
p2939
(lp2940
g87
ag164
ag231
ag5
asS'appl_1415'
p2941
(lp2942
g222
ag99
ag14
asS'appl_1414'
p2943
(lp2944
g19
ag323
ag94
ag45
asS'appl_1413'
p2945
(lp2946
g75
ag34
ag186
ag48
ag15
asS'appl_1412'
p2947
(lp2948
g25
ag159
ag232
ag20
asS'appl_1411'
p2949
(lp2950
g183
ag35
ag142
ag46
ag82
ag108
asS'appl_1410'
p2951
(lp2952
g82
ag56
ag29
ag26
asS'appl_1419'
p2953
(lp2954
g241
ag205
ag150
asS'appl_1418'
p2955
(lp2956
g532
ag10
ag47
ag21
ag93
asS'appl_662'
p2957
(lp2958
g66
ag208
ag84
asS'appl_663'
p2959
(lp2960
g54
ag232
ag161
ag46
ag292
ag38
ag105
asS'appl_660'
p2961
(lp2962
g26
ag16
ag87
asS'appl_661'
p2963
(lp2964
g272
ag231
ag225
ag65
asS'appl_666'
p2965
(lp2966
g131
asS'appl_667'
p2967
(lp2968
g178
ag240
ag215
ag100
ag91
ag26
ag116
ag218
ag92
asS'appl_664'
p2969
(lp2970
g171
ag218
ag93
ag237
ag168
ag368
ag156
ag150
asS'appl_665'
p2971
(lp2972
g323
ag127
ag55
asS'appl_668'
p2973
(lp2974
g123
ag47
ag428
ag116
asS'appl_669'
p2975
(lp2976
g5
ag183
ag14
ag284
ag153
asS'appl_460'
p2977
(lp2978
g86
ag287
ag168
asS'appl_461'
p2979
(lp2980
g16
ag118
asS'appl_462'
p2981
(lp2982
g156
ag204
ag82
ag241
asS'appl_463'
p2983
(lp2984
g61
ag178
ag186
ag164
ag222
ag156
ag123
asS'appl_464'
p2985
(lp2986
g45
ag5
asS'appl_465'
p2987
(lp2988
g225
ag122
ag397
asS'appl_466'
p2989
(lp2990
g3
ag117
ag111
ag323
asS'appl_467'
p2991
(lp2992
g203
ag91
ag153
ag160
ag218
ag183
ag127
ag45
asS'appl_468'
p2993
(lp2994
g150
ag164
ag380
ag91
asS'appl_469'
p2995
(lp2996
g123
ag272
ag112
asS'appl_204'
p2997
(lp2998
g61
ag204
ag11
ag284
ag118
ag116
asS'appl_205'
p2999
(lp3000
g15
ag263
asS'appl_206'
p3001
(lp3002
g278
asS'appl_207'
p3003
(lp3004
g532
ag161
ag41
ag33
asS'appl_200'
p3005
(lp3006
g94
ag7
ag192
asS'appl_201'
p3007
(lp3008
g178
ag62
ag323
asS'appl_202'
p3009
(lp3010
g61
ag99
ag4
ag78
ag51
ag225
asS'appl_203'
p3011
(lp3012
g284
ag368
ag56
ag160
ag84
ag91
asS'appl_208'
p3013
(lp3014
g208
ag171
ag82
ag287
ag153
ag85
ag228
asS'appl_209'
p3015
(lp3016
g191
ag83
asS'appl_1093'
p3017
(lp3018
g142
ag241
ag108
ag103
ag380
ag34
asS'appl_1092'
p3019
(lp3020
g156
asS'appl_1091'
p3021
(lp3022
g21
ag240
ag198
asS'appl_1090'
p3023
(lp3024
g287
ag377
ag380
asS'appl_1097'
p3025
(lp3026
g397
ag30
ag20
ag21
ag161
asS'appl_1096'
p3027
(lp3028
g160
ag279
ag25
ag103
ag127
ag232
ag99
asS'appl_1095'
p3029
(lp3030
g377
ag439
ag272
ag144
ag14
ag112
asS'appl_1094'
p3031
(lp3032
g143
ag93
ag79
ag38
ag153
ag13
asS'appl_1099'
p3033
(lp3034
g122
ag38
ag19
asS'appl_1098'
p3035
(lp3036
g279
ag439
ag204
ag192
ag183
ag108
ag160
ag143
asS'appl_1251'
p3037
(lp3038
g159
ag231
asS'appl_519'
p3039
(lp3040
g75
ag55
ag10
ag428
ag11
ag82
ag72
ag178
asS'appl_848'
p3041
(lp3042
g183
ag269
ag87
asS'appl_1252'
p3043
(lp3044
g279
ag116
ag192
ag203
ag82
asS'appl_1255'
p3045
(lp3046
g30
ag263
ag439
ag112
ag67
ag293
asS'appl_1254'
p3047
(lp3048
g377
ag215
ag70
ag20
asS'appl_1257'
p3049
(lp3050
g192
ag138
ag241
ag87
ag111
ag117
ag273
ag292
asS'appl_1256'
p3051
(lp3052
g195
asS'appl_842'
p3053
(lp3054
g160
ag83
ag269
asS'appl_843'
p3055
(lp3056
g204
ag232
ag150
ag292
asS'appl_840'
p3057
(lp3058
g308
ag284
ag130
ag108
asS'appl_513'
p3059
(lp3060
g272
ag94
ag54
ag4
asS'appl_514'
p3061
(lp3062
g45
ag99
ag159
asS'appl_515'
p3063
(lp3064
g204
ag135
ag175
ag94
asS'appl_516'
p3065
(lp3066
g323
ag34
ag284
ag33
ag123
asS'appl_845'
p3067
(lp3068
g78
ag44
ag62
asS'appl_688'
p3069
(lp3070
g87
ag323
ag135
ag25
asS'appl_689'
p3071
(lp3072
g46
ag3
ag70
ag222
ag279
asS'appl_680'
p3073
(lp3074
g203
ag293
ag147
ag47
ag7
ag171
ag16
ag91
asS'appl_681'
p3075
(lp3076
g292
ag397
ag10
ag6
asS'appl_682'
p3077
(lp3078
g86
ag156
asS'appl_683'
p3079
(lp3080
g203
ag118
asS'appl_684'
p3081
(lp3082
g203
ag131
ag84
ag156
ag240
ag6
ag25
ag308
ag70
asS'appl_685'
p3083
(lp3084
g55
ag100
ag175
ag83
ag11
ag112
ag266
ag292
asS'appl_686'
p3085
(lp3086
g56
ag21
ag380
ag34
ag287
ag29
ag112
asS'appl_687'
p3087
(lp3088
g287
ag62
ag308
ag198
ag186
ag138
asS'appl_508'
p3089
(lp3090
g144
ag6
ag143
ag72
ag142
asS'appl_859'
p3091
(lp3092
g191
ag279
ag168
ag7
ag24
ag186
ag215
asS'appl_858'
p3093
(lp3094
g144
ag532
ag113
asS'appl_402'
p3095
(lp3096
g144
ag159
asS'appl_403'
p3097
(lp3098
g84
ag67
ag48
ag160
asS'appl_400'
p3099
(lp3100
g182
ag13
ag21
ag38
ag377
asS'appl_503'
p3101
(lp3102
g377
ag12
ag279
asS'appl_401'
p3103
(lp3104
g204
ag35
ag178
ag172
asS'appl_502'
p3105
(lp3106
g65
ag380
ag171
ag159
asS'appl_406'
p3107
(lp3108
g91
ag56
ag178
asS'appl_857'
p3109
(lp3110
g127
ag14
asS'appl_407'
p3111
(lp3112
g15
ag127
ag108
ag84
ag153
asS'appl_1249'
p3113
(lp3114
g139
ag266
ag46
ag3
ag41
ag368
asS'appl_404'
p3115
(lp3116
g51
ag228
ag242
asS'appl_507'
p3117
(lp3118
g165
ag7
ag198
ag208
asS'appl_405'
p3119
(lp3120
g231
ag79
ag279
ag54
ag165
asS'appl_506'
p3121
(lp3122
g93
ag61
ag19
ag208
ag159
ag90
ag165
asS'appl_505'
p3123
(lp3124
g84
ag204
ag72
asS'appl_504'
p3125
(lp3126
g51
ag266
ag26
asS'appl_1079'
p3127
(lp3128
g25
ag240
ag208
asS'appl_1078'
p3129
(lp3130
g241
ag269
ag192
ag266
ag111
ag54
ag34
ag11
asS'appl_1071'
p3131
(lp3132
sS'appl_1070'
p3133
(lp3134
g143
ag139
ag195
ag71
asS'appl_1073'
p3135
(lp3136
g182
ag279
ag240
asS'appl_1072'
p3137
(lp3138
g84
ag273
ag45
ag61
asS'appl_1075'
p3139
(lp3140
g54
ag6
ag198
ag78
ag203
ag94
asS'appl_1074'
p3141
(lp3142
g94
ag278
ag19
ag186
asS'appl_1077'
p3143
(lp3144
g124
asS'appl_1076'
p3145
(lp3146
g139
ag191
ag208
ag61
ag70
ag123
ag165
asS'appl_58'
p3147
(lp3148
g228
ag54
ag205
ag11
asS'appl_695'
p3149
(lp3150
g15
ag191
asS'appl_92'
p3151
(lp3152
g104
ag35
ag3
ag78
ag144
ag33
asS'appl_93'
p3153
(lp3154
g14
ag67
ag279
ag35
asS'appl_90'
p3155
(lp3156
g287
ag142
ag231
ag118
ag397
asS'appl_91'
p3157
(lp3158
g38
ag178
ag35
ag228
asS'appl_96'
p3159
(lp3160
g150
ag85
ag131
asS'appl_97'
p3161
(lp3162
g142
ag104
asS'appl_94'
p3163
(lp3164
g33
ag91
ag439
ag72
ag10
ag108
ag117
ag222
asS'appl_95'
p3165
(lp3166
g293
ag20
asS'appl_98'
p3167
(lp3168
g112
ag65
ag198
asS'appl_99'
p3169
(lp3170
g70
ag186
ag26
ag91
asS'appl_1408'
p3171
(lp3172
g67
ag105
ag34
ag56
ag30
ag3
asS'appl_1409'
p3173
(lp3174
g308
ag122
asS'appl_1400'
p3175
(lp3176
g112
ag105
ag118
ag292
asS'appl_1401'
p3177
(lp3178
g122
ag118
ag78
ag61
ag215
ag380
ag105
ag87
ag48
asS'appl_1402'
p3179
(lp3180
g94
ag99
ag240
ag19
asS'appl_1403'
p3181
(lp3182
g6
ag19
ag232
ag72
ag292
asS'appl_1404'
p3183
(lp3184
g20
ag38
ag397
ag66
ag165
ag6
asS'appl_1405'
p3185
(lp3186
g160
ag13
ag171
asS'appl_1406'
p3187
(lp3188
g131
ag108
ag56
ag72
ag105
ag48
ag61
ag78
ag62
asS'appl_1407'
p3189
(lp3190
g127
ag178
ag116
ag132
asS'appl_675'
p3191
(lp3192
g225
ag232
ag308
ag183
asS'appl_674'
p3193
(lp3194
g178
ag156
ag150
ag108
asS'appl_677'
p3195
(lp3196
g51
ag34
asS'appl_676'
p3197
(lp3198
g116
ag186
ag183
ag21
ag165
ag16
asS'appl_671'
p3199
(lp3200
g78
asS'appl_670'
p3201
(lp3202
g266
ag41
ag368
ag144
ag6
ag293
ag29
ag47
ag172
asS'appl_673'
p3203
(lp3204
g34
ag113
ag159
asS'appl_672'
p3205
(lp3206
g192
ag284
ag198
ag203
ag153
asS'appl_679'
p3207
(lp3208
g123
asS'appl_678'
p3209
(lp3210
g215
ag287
ag428
ag203
asS'appl_473'
p3211
(lp3212
g83
ag87
ag118
asS'appl_472'
p3213
(lp3214
g439
ag175
asS'appl_471'
p3215
(lp3216
g92
ag179
ag122
asS'appl_470'
p3217
(lp3218
g142
ag161
ag215
asS'appl_477'
p3219
(lp3220
g192
ag62
ag183
ag117
asS'appl_476'
p3221
(lp3222
g44
ag26
ag130
ag142
asS'appl_475'
p3223
(lp3224
g161
ag6
ag70
ag15
asS'appl_474'
p3225
(lp3226
g168
asS'appl_479'
p3227
(lp3228
g7
ag532
ag15
ag171
ag111
asS'appl_478'
p3229
(lp3230
g33
ag54
asS'appl_657'
p3231
(lp3232
g7
ag54
ag168
ag34
ag218
asS'appl_656'
p3233
(lp3234
g92
ag380
asS'appl_655'
p3235
(lp3236
g377
ag104
asS'appl_654'
p3237
(lp3238
g273
asS'appl_653'
p3239
(lp3240
g67
ag164
ag91
asS'appl_652'
p3241
(lp3242
g7
ag113
ag111
ag186
asS'appl_217'
p3243
(lp3244
g55
ag172
ag111
ag241
ag116
ag147
asS'appl_216'
p3245
(lp3246
g26
ag168
ag14
ag186
ag61
ag164
asS'appl_215'
p3247
(lp3248
g111
ag12
ag34
ag273
asS'appl_214'
p3249
(lp3250
g11
ag47
asS'appl_213'
p3251
(lp3252
g123
ag84
ag20
ag30
ag142
ag38
asS'appl_651'
p3253
(lp3254
g428
ag54
ag105
ag29
asS'appl_211'
p3255
(lp3256
g24
asS'appl_210'
p3257
(lp3258
g92
ag5
ag218
asS'appl_650'
p3259
(lp3260
g117
ag29
ag66
ag159
ag278
asS'appl_219'
p3261
(lp3262
g122
ag368
ag218
ag116
ag79
ag178
ag532
ag24
ag78
asS'appl_218'
p3263
(lp3264
g93
ag118
ag84
ag91
ag135
asS'appl_613'
p3265
(lp3266
g86
ag70
asS'appl_1084'
p3267
(lp3268
g78
ag70
ag284
ag34
ag93
ag11
asS'appl_1085'
p3269
(lp3270
g168
ag123
asS'appl_1086'
p3271
(lp3272
g93
ag175
ag119
ag86
ag186
ag225
ag26
ag178
ag532
asS'appl_1087'
p3273
(lp3274
g203
ag41
ag215
asS'appl_1080'
p3275
(lp3276
g266
ag55
ag218
ag123
ag284
asS'appl_1081'
p3277
(lp3278
g85
ag130
ag12
ag15
ag21
ag228
asS'appl_1082'
p3279
(lp3280
g175
ag86
ag215
ag439
ag292
ag138
ag168
ag108
asS'appl_1083'
p3281
(lp3282
g82
ag439
ag203
ag84
ag205
asS'appl_1088'
p3283
(lp3284
g272
ag179
ag156
ag380
ag61
asS'appl_1089'
p3285
(lp3286
g41
ag132
ag428
ag266
asS'appl_825'
p3287
(lp3288
g7
ag156
ag161
ag116
asS'appl_1242'
p3289
(lp3290
g48
ag130
ag178
ag186
ag105
ag278
ag208
asS'appl_1243'
p3291
(lp3292
g124
ag21
ag532
asS'appl_1240'
p3293
(lp3294
g161
ag323
ag156
asS'appl_1241'
p3295
(lp3296
g124
ag75
ag131
asS'appl_1246'
p3297
(lp3298
g144
ag175
ag172
asS'appl_1247'
p3299
(lp3300
g147
ag86
ag161
ag263
asS'appl_1244'
p3301
(lp3302
g178
ag113
ag143
asS'appl_1245'
p3303
(lp3304
g55
ag397
ag532
asS'appl_855'
p3305
(lp3306
g218
ag293
ag111
ag175
ag205
ag225
asS'appl_854'
p3307
(lp3308
g55
ag56
asS'appl_1248'
p3309
(lp3310
g168
ag218
ag11
ag160
ag15
ag48
asS'appl_856'
p3311
(lp3312
g13
ag71
asS'appl_851'
p3313
(lp3314
g168
ag13
ag79
asS'appl_850'
p3315
(lp3316
g71
ag183
ag29
ag54
ag118
ag112
ag368
asS'appl_853'
p3317
(lp3318
g100
ag368
ag218
asS'appl_852'
p3319
(lp3320
g123
ag368
ag225
ag34
ag108
ag70
ag47
asS'appl_699'
p3321
(lp3322
g124
ag75
ag308
ag44
ag5
ag66
ag215
asS'appl_698'
p3323
(lp3324
g112
ag195
ag56
ag222
asS'appl_693'
p3325
(lp3326
g164
ag25
ag33
ag56
asS'appl_692'
p3327
(lp3328
g171
ag33
ag272
ag111
ag269
ag51
asS'appl_691'
p3329
(lp3330
g15
asS'appl_690'
p3331
(lp3332
g66
ag14
ag269
asS'appl_697'
p3333
(lp3334
g156
ag75
ag237
asS'appl_696'
p3335
(lp3336
g13
ag21
ag79
ag10
asS'appl_509'
p3337
(lp3338
g56
ag21
ag215
ag179
asS'appl_694'
p3339
(lp3340
g11
ag65
ag172
ag218
ag215
as.