(dp0
S'University of Alabama Medical Center Program'
p1
(dp2
S'positions'
p3
I8
sS'rankings'
p4
(lp5
S'appl_676'
p6
aS'appl_1423'
p7
aS'appl_721'
p8
aS'appl_159'
p9
aS'appl_1505'
p10
aS'appl_728'
p11
aS'appl_445'
p12
aS'appl_393'
p13
aS'appl_1584'
p14
aS'appl_1583'
p15
aS'appl_1568'
p16
aS'appl_640'
p17
aS'appl_484'
p18
aS'appl_790'
p19
aS'appl_1418'
p20
aS'appl_659'
p21
aS'appl_1481'
p22
aS'appl_1097'
p23
assS'Case Western Reserve University (MetroHealth) Program'
p24
(dp25
g3
I5
sg4
(lp26
S'appl_1314'
p27
aS'appl_800'
p28
aS'appl_407'
p29
aS'appl_77'
p30
aS'appl_558'
p31
aS'appl_866'
p32
aS'appl_789'
p33
aS'appl_1430'
p34
aS'appl_1025'
p35
aS'appl_429'
p36
aS'appl_647'
p37
aS'appl_105'
p38
aS'appl_1407'
p39
aS'appl_1571'
p40
aS'appl_1474'
p41
aS'appl_431'
p42
assS'University of Vermont Medical Center Program'
p43
(dp44
g3
I2
sg4
(lp45
S'appl_825'
p46
aS'appl_1269'
p47
aS'appl_1068'
p48
aS'appl_1131'
p49
aS'appl_639'
p50
aS'appl_169'
p51
aS'appl_327'
p52
aS'appl_680'
p53
aS'appl_1473'
p54
aS'appl_1239'
p55
aS'appl_1398'
p56
aS'appl_170'
p57
assS'Case Western Reserve University/University Hospitals Cleveland Medical Center Program'
p58
(dp59
g3
I6
sg4
(lp60
S'appl_513'
p61
aS'appl_62'
p62
aS'appl_501'
p63
aS'appl_394'
p64
aS'appl_1075'
p65
aS'appl_515'
p66
aS'appl_335'
p67
aS'appl_810'
p68
aS'appl_398'
p69
aS'appl_734'
p70
aS'appl_1560'
p71
aS'appl_76'
p72
aS'appl_982'
p73
aS'appl_181'
p74
aS'appl_1024'
p75
aS'appl_1040'
p76
assS'Summa Health System/NEOMED Program'
p77
(dp78
g3
I8
sg4
(lp79
S'appl_656'
p80
aS'appl_377'
p81
aS'appl_412'
p82
aS'appl_279'
p83
aS'appl_1034'
p84
aS'appl_1012'
p85
aS'appl_182'
p86
aS'appl_512'
p87
aS'appl_1259'
p88
aS'appl_379'
p89
aS'appl_811'
p90
aS'appl_168'
p91
aS'appl_611'
p92
aS'appl_1318'
p93
assS'SUNY Health Science Center at Brooklyn Program'
p94
(dp95
g3
I7
sg4
(lp96
S'appl_702'
p97
aS'appl_344'
p98
aS'appl_1521'
p99
aS'appl_1027'
p100
ag7
aS'appl_964'
p101
aS'appl_1553'
p102
aS'appl_1557'
p103
aS'appl_753'
p104
aS'appl_636'
p105
aS'appl_1171'
p106
aS'appl_1361'
p107
aS'appl_386'
p108
ag17
aS'appl_1357'
p109
aS'appl_222'
p110
aS'appl_1477'
p111
aS'appl_940'
p112
aS'appl_844'
p113
assS'Indiana University School of Medicine Program'
p114
(dp115
g3
I6
sg4
(lp116
S'appl_1504'
p117
aS'appl_571'
p118
aS'appl_1180'
p119
aS'appl_1341'
p120
aS'appl_1098'
p121
aS'appl_508'
p122
aS'appl_283'
p123
aS'appl_1045'
p124
aS'appl_873'
p125
aS'appl_838'
p126
aS'appl_1019'
p127
aS'appl_249'
p128
aS'appl_1548'
p129
aS'appl_891'
p130
aS'appl_578'
p131
assS'UPMC Medical Education Program'
p132
(dp133
g3
I8
sg4
(lp134
S'appl_419'
p135
aS'appl_1592'
p136
aS'appl_801'
p137
aS'appl_101'
p138
ag88
aS'appl_692'
p139
aS'appl_71'
p140
aS'appl_360'
p141
aS'appl_620'
p142
aS'appl_1257'
p143
aS'appl_1479'
p144
aS'appl_727'
p145
aS'appl_629'
p146
aS'appl_1213'
p147
aS'appl_1547'
p148
aS'appl_1368'
p149
aS'appl_740'
p150
aS'appl_1424'
p151
aS'appl_176'
p152
aS'appl_1161'
p153
assS'Pennsylvania Hospital of the University of Pennsylvania Health System Program'
p154
(dp155
g3
I6
sg4
(lp156
S'appl_442'
p157
aS'appl_689'
p158
aS'appl_1370'
p159
aS'appl_626'
p160
aS'appl_870'
p161
aS'appl_932'
p162
aS'appl_87'
p163
aS'appl_829'
p164
aS'appl_1101'
p165
aS'appl_1472'
p166
aS'appl_704'
p167
aS'appl_418'
p168
aS'appl_314'
p169
assS'William Beaumont Hospital Program'
p170
(dp171
g3
I2
sg4
(lp172
g159
aS'appl_1564'
p173
aS'appl_708'
p174
aS'appl_246'
p175
aS'appl_100'
p176
aS'appl_22'
p177
aS'appl_468'
p178
aS'appl_1177'
p179
ag135
aS'appl_913'
p180
aS'appl_591'
p181
aS'appl_1273'
p182
aS'appl_693'
p183
ag36
aS'appl_542'
p184
aS'appl_1106'
p185
assS'Oregon Health & Science University Program'
p186
(dp187
g3
I7
sg4
(lp188
S'appl_744'
p189
aS'appl_920'
p190
aS'appl_905'
p191
aS'appl_724'
p192
aS'appl_845'
p193
aS'appl_793'
p194
aS'appl_530'
p195
aS'appl_1064'
p196
aS'appl_699'
p197
aS'appl_57'
p198
ag97
aS'appl_1443'
p199
aS'appl_455'
p200
aS'appl_241'
p201
aS'appl_1178'
p202
aS'appl_31'
p203
assS'Cedars-Sinai Medical Center Program'
p204
(dp205
g3
I8
sg4
(lp206
S'appl_1345'
p207
aS'appl_35'
p208
aS'appl_1527'
p209
aS'appl_601'
p210
aS'appl_1438'
p211
aS'appl_726'
p212
aS'appl_593'
p213
aS'appl_698'
p214
aS'appl_839'
p215
aS'appl_1576'
p216
aS'appl_440'
p217
ag9
aS'appl_1006'
p218
aS'appl_1410'
p219
aS'appl_357'
p220
aS'appl_1130'
p221
aS'appl_1551'
p222
aS'appl_509'
p223
assS'Medical College of Georgia Program'
p224
(dp225
g3
I7
sg4
(lp226
S'appl_1167'
p227
aS'appl_1491'
p228
aS'appl_172'
p229
aS'appl_1205'
p230
aS'appl_1112'
p231
aS'appl_936'
p232
aS'appl_60'
p233
aS'appl_514'
p234
aS'appl_1441'
p235
aS'appl_658'
p236
ag222
aS'appl_1096'
p237
aS'appl_1176'
p238
aS'appl_75'
p239
aS'appl_1415'
p240
aS'appl_1431'
p241
assS'Jackson Memorial Hospital/Jackson Health System Program'
p242
(dp243
g3
I7
sg4
(lp244
S'appl_763'
p245
aS'appl_1047'
p246
aS'appl_27'
p247
aS'appl_1026'
p248
ag14
aS'appl_701'
p249
aS'appl_584'
p250
aS'appl_1277'
p251
aS'appl_722'
p252
aS'appl_1223'
p253
aS'appl_604'
p254
aS'appl_962'
p255
aS'appl_1597'
p256
aS'appl_663'
p257
aS'appl_1227'
p258
aS'appl_185'
p259
ag149
assS"St Joseph's Hospital and Medical Center Program"
p260
(dp261
g3
I4
sg4
(lp262
S'appl_568'
p263
aS'appl_359'
p264
aS'appl_1288'
p265
aS'appl_1153'
p266
ag109
aS'appl_2'
p267
aS'appl_1059'
p268
aS'appl_1425'
p269
aS'appl_528'
p270
aS'appl_1329'
p271
ag93
aS'appl_808'
p272
ag223
aS'appl_934'
p273
aS'appl_1355'
p274
aS'appl_254'
p275
ag108
aS'appl_266'
p276
assS'Yale-New Haven Medical Center Program'
p277
(dp278
g3
I6
sg4
(lp279
S'appl_1489'
p280
ag174
aS'appl_750'
p281
aS'appl_770'
p282
aS'appl_318'
p283
ag74
aS'appl_1136'
p284
aS'appl_1282'
p285
aS'appl_284'
p286
aS'appl_646'
p287
aS'appl_677'
p288
aS'appl_163'
p289
aS'appl_1387'
p290
aS'appl_3'
p291
aS'appl_776'
p292
aS'appl_257'
p293
aS'appl_152'
p294
aS'appl_1334'
p295
aS'appl_1120'
p296
assS'University of Michigan Program'
p297
(dp298
g3
I7
sg4
(lp299
S'appl_1348'
p300
ag148
aS'appl_195'
p301
aS'appl_1378'
p302
ag100
aS'appl_1076'
p303
ag290
aS'appl_190'
p304
aS'appl_153'
p305
aS'appl_999'
p306
aS'appl_1426'
p307
aS'appl_949'
p308
aS'appl_1179'
p309
aS'appl_289'
p310
aS'appl_232'
p311
assS'University of Cincinnati Medical Center/College of Medicine Program'
p312
(dp313
g3
I6
sg4
(lp314
g9
ag256
aS'appl_107'
p315
aS'appl_1311'
p316
aS'appl_697'
p317
ag119
aS'appl_802'
p318
aS'appl_674'
p319
aS'appl_1240'
p320
ag38
aS'appl_1466'
p321
ag173
aS'appl_1151'
p322
aS'appl_946'
p323
aS'appl_346'
p324
aS'appl_290'
p325
aS'appl_682'
p326
ag118
assS'University of Virginia Program'
p327
(dp328
g3
I6
sg4
(lp329
S'appl_760'
p330
aS'appl_453'
p331
ag248
aS'appl_1598'
p332
aS'appl_893'
p333
aS'appl_390'
p334
aS'appl_707'
p335
aS'appl_943'
p336
aS'appl_778'
p337
aS'appl_1371'
p338
aS'appl_422'
p339
aS'appl_375'
p340
ag159
aS'appl_942'
p341
aS'appl_482'
p342
aS'appl_441'
p343
ag122
aS'appl_681'
p344
assS'Danbury Hospital Program'
p345
(dp346
g3
I3
sg4
(lp347
S'appl_517'
p348
aS'appl_349'
p349
aS'appl_1346'
p350
aS'appl_1051'
p351
ag286
ag157
aS'appl_619'
p352
aS'appl_1055'
p353
aS'appl_1326'
p354
aS'appl_1296'
p355
aS'appl_684'
p356
aS'appl_979'
p357
aS'appl_1394'
p358
aS'appl_715'
p359
aS'appl_1032'
p360
assS'Albany Medical Center Program'
p361
(dp362
g3
I6
sg4
(lp363
S'appl_1379'
p364
aS'appl_553'
p365
ag263
aS'appl_852'
p366
aS'appl_142'
p367
aS'appl_219'
p368
aS'appl_1499'
p369
aS'appl_545'
p370
aS'appl_280'
p371
aS'appl_732'
p372
ag136
aS'appl_885'
p373
assS'George Washington University Program'
p374
(dp375
g3
I7
sg4
(lp376
S'appl_880'
p377
aS'appl_1524'
p378
aS'appl_1003'
p379
aS'appl_297'
p380
aS'appl_813'
p381
aS'appl_48'
p382
aS'appl_40'
p383
aS'appl_739'
p384
ag292
aS'appl_1005'
p385
ag325
aS'appl_848'
p386
aS'appl_1572'
p387
aS'appl_1399'
p388
assS'Johns Hopkins University Program'
p389
(dp390
g3
I2
sg4
(lp391
S'appl_499'
p392
ag195
ag216
aS'appl_1246'
p393
aS'appl_1105'
p394
aS'appl_1293'
p395
aS'appl_554'
p396
ag11
aS'appl_391'
p397
ag274
aS'appl_1343'
p398
aS'appl_1307'
p399
aS'appl_1349'
p400
aS'appl_1595'
p401
aS'appl_1086'
p402
aS'appl_165'
p403
aS'appl_805'
p404
aS'appl_868'
p405
aS'appl_113'
p406
assS'University of South Florida Morsani Program'
p407
(dp408
g3
I6
sg4
(lp409
S'appl_1406'
p410
ag295
aS'appl_1545'
p411
aS'appl_541'
p412
ag118
aS'appl_563'
p413
aS'appl_96'
p414
aS'appl_227'
p415
aS'appl_747'
p416
aS'appl_618'
p417
aS'appl_785'
p418
ag294
ag85
ag241
ag181
assS'Brown University Program'
p419
(dp420
g3
I7
sg4
(lp421
g282
aS'appl_253'
p422
ag257
aS'appl_1141'
p423
aS'appl_248'
p424
aS'appl_1513'
p425
aS'appl_950'
p426
aS'appl_723'
p427
ag385
aS'appl_1540'
p428
aS'appl_162'
p429
aS'appl_924'
p430
aS'appl_309'
p431
aS'appl_711'
p432
ag23
ag216
aS'appl_53'
p433
assS'Boston University Medical Center Program'
p434
(dp435
g3
I5
sg4
(lp436
S'appl_575'
p437
ag130
aS'appl_850'
p438
aS'appl_1458'
p439
aS'appl_421'
p440
aS'appl_603'
p441
aS'appl_493'
p442
aS'appl_657'
p443
aS'appl_38'
p444
aS'appl_552'
p445
aS'appl_651'
p446
aS'appl_28'
p447
aS'appl_526'
p448
assS'Washington University/B-JH/SLCH Consortium Program'
p449
(dp450
g3
I2
sg4
(lp451
S'appl_588'
p452
aS'appl_807'
p453
aS'appl_1419'
p454
ag101
aS'appl_449'
p455
ag112
aS'appl_937'
p456
aS'appl_644'
p457
aS'appl_1189'
p458
aS'appl_217'
p459
ag427
ag429
aS'appl_89'
p460
assS'Creighton University Program'
p461
(dp462
g3
I2
sg4
(lp463
S'appl_1209'
p464
aS'appl_353'
p465
aS'appl_240'
p466
ag135
aS'appl_133'
p467
aS'appl_273'
p468
ag63
aS'appl_983'
p469
aS'appl_1188'
p470
aS'appl_1295'
p471
aS'appl_15'
p472
aS'appl_348'
p473
aS'appl_303'
p474
aS'appl_792'
p475
assS'Allegheny Health Network Medical Education Consortium (AGH) Program'
p476
(dp477
g3
I6
sg4
(lp478
S'appl_1427'
p479
ag284
ag6
aS'appl_507'
p480
aS'appl_24'
p481
ag200
aS'appl_417'
p482
aS'appl_506'
p483
aS'appl_945'
p484
aS'appl_1512'
p485
aS'appl_914'
p486
ag57
aS'appl_405'
p487
aS'appl_1362'
p488
aS'appl_1266'
p489
aS'appl_361'
p490
ag398
aS'appl_380'
p491
assS'Drexel University College of Medicine/Hahnemann University Hospital Program'
p492
(dp493
g3
I4
sg4
(lp494
S'appl_19'
p495
aS'appl_1289'
p496
ag371
aS'appl_382'
p497
ag398
aS'appl_1199'
p498
ag190
aS'appl_1554'
p499
aS'appl_918'
p500
ag228
ag34
aS'appl_944'
p501
aS'appl_261'
p502
aS'appl_963'
p503
aS'appl_1028'
p504
aS'appl_1160'
p505
assS'Rutgers Robert Wood Johnson Medical School Program'
p506
(dp507
g3
I2
sg4
(lp508
S'appl_282'
p509
ag190
aS'appl_765'
p510
aS'appl_916'
p511
aS'appl_1528'
p512
ag219
aS'appl_1234'
p513
aS'appl_1377'
p514
ag446
aS'appl_1015'
p515
aS'appl_1464'
p516
aS'appl_270'
p517
ag438
aS'appl_670'
p518
aS'appl_1317'
p519
aS'appl_928'
p520
ag168
aS'appl_378'
p521
ag367
aS'appl_985'
p522
aS'appl_650'
p523
aS'appl_1298'
p524
aS'appl_1262'
p525
assS'University of Florida Program'
p526
(dp527
g3
I2
sg4
(lp528
S'appl_1302'
p529
ag355
ag231
aS'appl_947'
p530
ag287
aS'appl_830'
p531
aS'appl_216'
p532
aS'appl_532'
p533
aS'appl_643'
p534
aS'appl_1022'
p535
aS'appl_67'
p536
aS'appl_572'
p537
ag248
aS'appl_667'
p538
aS'appl_1344'
p539
aS'appl_1315'
p540
aS'appl_1144'
p541
assS'Baylor University Medical Center Program'
p542
(dp543
g3
I5
sg4
(lp544
S'appl_252'
p545
ag16
ag397
aS'appl_1563'
p546
ag180
aS'appl_786'
p547
aS'appl_984'
p548
ag176
aS'appl_1492'
p549
aS'appl_1183'
p550
assS'UMMS-Baystate Program'
p551
(dp552
g3
I2
sg4
(lp553
g112
aS'appl_350'
p554
ag75
aS'appl_669'
p555
aS'appl_387'
p556
aS'appl_834'
p557
ag84
aS'appl_712'
p558
aS'appl_208'
p559
aS'appl_567'
p560
ag101
aS'appl_958'
p561
ag147
ag85
aS'appl_247'
p562
aS'appl_1010'
p563
aS'appl_828'
p564
ag29
aS'appl_52'
p565
ag8
aS'appl_192'
p566
assS'Hofstra Northwell School of Medicine at Lenox Hill Hospital Program'
p567
(dp568
g3
I2
sg4
(lp569
S'appl_204'
p570
aS'appl_126'
p571
aS'appl_586'
p572
aS'appl_228'
p573
aS'appl_408'
p574
aS'appl_1084'
p575
aS'appl_1363'
p576
aS'appl_1332'
p577
aS'appl_58'
p578
aS'appl_519'
p579
aS'appl_1397'
p580
aS'appl_716'
p581
aS'appl_608'
p582
aS'appl_902'
p583
aS'appl_1248'
p584
ag290
ag378
assS'Cleveland Clinic Foundation Program'
p585
(dp586
g3
I2
sg4
(lp587
S'appl_121'
p588
aS'appl_1157'
p589
ag179
aS'appl_205'
p590
aS'appl_1255'
p591
aS'appl_534'
p592
ag422
aS'appl_954'
p593
ag415
aS'appl_55'
p594
aS'appl_1235'
p595
aS'appl_119'
p596
ag355
aS'appl_324'
p597
assS'University of Texas Medical Branch Hospitals Program'
p598
(dp599
g3
I3
sg4
(lp600
S'appl_1538'
p601
ag423
ag439
aS'appl_9'
p602
aS'appl_307'
p603
aS'appl_634'
p604
aS'appl_275'
p605
aS'appl_1454'
p606
aS'appl_1023'
p607
ag468
ag280
ag16
aS'appl_258'
p608
aS'appl_155'
p609
aS'appl_1037'
p610
aS'appl_371'
p611
assS'Hartford Hospital Program'
p612
(dp613
g3
I8
sg4
(lp614
S'appl_874'
p615
aS'appl_370'
p616
ag365
aS'appl_1093'
p617
aS'appl_787'
p618
aS'appl_955'
p619
ag70
aS'appl_399'
p620
aS'appl_995'
p621
aS'appl_1388'
p622
aS'appl_1276'
p623
aS'appl_1145'
p624
aS'appl_899'
p625
aS'appl_781'
p626
aS'appl_331'
p627
aS'appl_520'
p628
ag509
aS'appl_903'
p629
aS'appl_570'
p630
aS'appl_633'
p631
assS'Los Angeles County-Harbor-UCLA Medical Center Program'
p632
(dp633
g3
I5
sg4
(lp634
g397
aS'appl_428'
p635
ag355
aS'appl_226'
p636
aS'appl_358'
p637
aS'appl_260'
p638
aS'appl_423'
p639
aS'appl_1252'
p640
ag39
aS'appl_1478'
p641
aS'appl_971'
p642
aS'appl_1219'
p643
ag538
aS'appl_1039'
p644
aS'appl_746'
p645
aS'appl_1335'
p646
aS'appl_1384'
p647
ag368
assS'Georgetown University Hospital Program'
p648
(dp649
g3
I5
sg4
(lp650
S'appl_1376'
p651
aS'appl_125'
p652
aS'appl_1590'
p653
aS'appl_1290'
p654
aS'appl_329'
p655
aS'appl_587'
p656
aS'appl_1310'
p657
aS'appl_32'
p658
aS'appl_1404'
p659
aS'appl_1304'
p660
aS'appl_511'
p661
ag160
aS'appl_649'
p662
aS'appl_158'
p663
aS'appl_276'
p664
ag395
ag13
aS'appl_457'
p665
aS'appl_1139'
p666
assS'University of Nebraska Medical Center College of Medicine Program'
p667
(dp668
g3
I5
sg4
(lp669
g402
ag308
ag316
ag660
ag62
ag516
ag424
ag588
aS'appl_664'
p670
ag42
aS'appl_256'
p671
aS'appl_1238'
p672
aS'appl_1396'
p673
aS'appl_494'
p674
aS'appl_51'
p675
aS'appl_1263'
p676
ag575
assS'Massachusetts General Hospital Program'
p677
(dp678
g3
I5
sg4
(lp679
S'appl_175'
p680
aS'appl_1531'
p681
aS'appl_745'
p682
ag539
ag109
aS'appl_706'
p683
aS'appl_1300'
p684
aS'appl_673'
p685
aS'appl_1236'
p686
aS'appl_1109'
p687
ag252
aS'appl_863'
p688
ag91
aS'appl_1009'
p689
aS'appl_74'
p690
aS'appl_939'
p691
ag483
aS'appl_306'
p692
assS'Emory University Program'
p693
(dp694
g3
I3
sg4
(lp695
S'appl_991'
p696
aS'appl_84'
p697
aS'appl_516'
p698
aS'appl_395'
p699
ag617
ag288
ag495
aS'appl_625'
p700
ag81
ag272
aS'appl_783'
p701
aS'appl_18'
p702
aS'appl_264'
p703
ag282
aS'appl_1260'
p704
aS'appl_686'
p705
aS'appl_1018'
p706
aS'appl_1078'
p707
assS'University of South Dakota Program'
p708
(dp709
g3
I8
sg4
(lp710
g92
aS'appl_1577'
p711
ag703
ag558
aS'appl_447'
p712
aS'appl_1070'
p713
aS'appl_197'
p714
ag680
aS'appl_198'
p715
ag484
aS'appl_46'
p716
ag379
ag306
aS'appl_1522'
p717
ag385
ag54
ag181
aS'appl_561'
p718
aS'appl_239'
p719
aS'appl_39'
p720
ag265
aS'appl_736'
p721
assS'University of Mississippi Medical Center Program'
p722
(dp723
g3
I3
sg4
(lp724
S'appl_245'
p725
ag531
aS'appl_147'
p726
aS'appl_791'
p727
ag690
aS'appl_867'
p728
ag174
aS'appl_490'
p729
ag643
ag481
ag688
aS'appl_1119'
p730
ag397
aS'appl_1339'
p731
aS'appl_1285'
p732
ag322
assS'Icahn School of Medicine at Mount Sinai Program'
p733
(dp734
g3
I3
sg4
(lp735
S'appl_901'
p736
aS'appl_288'
p737
aS'appl_1360'
p738
aS'appl_269'
p739
aS'appl_291'
p740
aS'appl_1072'
p741
ag687
aS'appl_1555'
p742
ag520
aS'appl_927'
p743
aS'appl_68'
p744
aS'appl_339'
p745
aS'appl_718'
p746
ag683
aS'appl_1401'
p747
ag110
assS'University of Toledo Program'
p748
(dp749
g3
I2
sg4
(lp750
S'appl_1278'
p751
aS'appl_13'
p752
ag538
aS'appl_1532'
p753
aS'appl_1374'
p754
ag566
ag706
ag539
aS'appl_174'
p755
aS'appl_337'
p756
aS'appl_974'
p757
aS'appl_1330'
p758
aS'appl_555'
p759
ag9
ag655
aS'appl_853'
p760
aS'appl_926'
p761
ag554
assS'University of New Mexico Program'
p762
(dp763
g3
I2
sg4
(lp764
g200
aS'appl_1163'
p765
aS'appl_755'
p766
aS'appl_1175'
p767
ag697
aS'appl_998'
p768
ag577
aS'appl_110'
p769
aS'appl_1308'
p770
ag17
aS'appl_1353'
p771
ag219
aS'appl_713'
p772
aS'appl_1395'
p773
aS'appl_1200'
p774
aS'appl_935'
p775
aS'appl_1469'
p776
aS'appl_462'
p777
assS'University of Kentucky College of Medicine Program'
p778
(dp779
g3
I7
sg4
(lp780
S'appl_115'
p781
aS'appl_1172'
p782
aS'appl_579'
p783
aS'appl_683'
p784
aS'appl_1337'
p785
ag203
aS'appl_315'
p786
aS'appl_1320'
p787
aS'appl_461'
p788
ag275
aS'appl_522'
p789
ag672
aS'appl_199'
p790
aS'appl_90'
p791
ag444
ag606
assS'University of Texas Health Science Center School of Medicine at San Antonio Program'
p792
(dp793
g3
I5
sg4
(lp794
S'appl_1573'
p795
ag716
aS'appl_703'
p796
aS'appl_1468'
p797
aS'appl_396'
p798
aS'appl_1270'
p799
aS'appl_1445'
p800
aS'appl_849'
p801
ag645
ag143
ag247
aS'appl_687'
p802
ag743
assS'St John Hospital and Medical Center Program'
p803
(dp804
g3
I2
sg4
(lp805
g754
ag158
ag487
ag628
aS'appl_503'
p806
ag658
aS'appl_1261'
p807
aS'appl_859'
p808
ag167
ag131
aS'appl_1206'
p809
aS'appl_546'
p810
ag289
assS'Medical College of Wisconsin Affiliated Hospitals Program'
p811
(dp812
g3
I3
sg4
(lp813
S'appl_1237'
p814
ag110
aS'appl_285'
p815
ag746
ag706
aS'appl_1328'
p816
aS'appl_888'
p817
aS'appl_631'
p818
aS'appl_1364'
p819
ag670
aS'appl_539'
p820
aS'appl_293'
p821
assS'University of Minnesota Program'
p822
(dp823
g3
I2
sg4
(lp824
S'appl_206'
p825
aS'appl_343'
p826
aS'appl_237'
p827
ag230
aS'appl_322'
p828
aS'appl_1195'
p829
ag174
aS'appl_1215'
p830
ag405
ag334
aS'appl_992'
p831
aS'appl_366'
p832
ag290
aS'appl_1035'
p833
ag716
aS'appl_0'
p834
assS'University of Oklahoma Health Sciences Center Program'
p835
(dp836
g3
I5
sg4
(lp837
S'appl_1125'
p838
aS'appl_685'
p839
aS'appl_1340'
p840
aS'appl_1403'
p841
aS'appl_1432'
p842
ag820
ag257
aS'appl_1138'
p843
aS'appl_531'
p844
aS'appl_1203'
p845
ag431
aS'appl_843'
p846
aS'appl_764'
p847
ag143
ag644
assS'University of California (San Diego) Program'
p848
(dp849
g3
I3
sg4
(lp850
S'appl_374'
p851
ag802
aS'appl_573'
p852
ag377
aS'appl_1526'
p853
aS'appl_705'
p854
aS'appl_454'
p855
aS'appl_1462'
p856
aS'appl_525'
p857
aS'appl_672'
p858
aS'appl_1091'
p859
aS'appl_42'
p860
assS'New York University School of Medicine Program'
p861
(dp862
g3
I2
sg4
(lp863
S'appl_1170'
p864
aS'appl_1117'
p865
ag126
aS'appl_1190'
p866
aS'appl_65'
p867
ag38
aS'appl_1442'
p868
aS'appl_268'
p869
ag197
aS'appl_114'
p870
ag579
aS'appl_1029'
p871
aS'appl_1140'
p872
ag656
aS'appl_758'
p873
aS'appl_909'
p874
assS'Rutgers New Jersey Medical School Program'
p875
(dp876
g3
I3
sg4
(lp877
g285
ag169
ag54
ag692
aS'appl_652'
p878
ag112
ag57
ag221
ag503
aS'appl_581'
p879
ag433
assS'University of Tennessee Program'
p880
(dp881
g3
I7
sg4
(lp882
g696
ag866
ag290
aS'appl_754'
p883
ag413
ag816
aS'appl_655'
p884
aS'appl_1090'
p885
aS'appl_1356'
p886
aS'appl_1444'
p887
aS'appl_827'
p888
aS'appl_1021'
p889
ag231
aS'appl_799'
p890
ag373
aS'appl_1254'
p891
ag147
aS'appl_49'
p892
ag110
assS'University of Maryland Program'
p893
(dp894
g3
I6
sg4
(lp895
g326
ag627
aS'appl_933'
p896
aS'appl_641'
p897
aS'appl_719'
p898
aS'appl_109'
p899
aS'appl_990'
p900
aS'appl_892'
p901
aS'appl_488'
p902
aS'appl_272'
p903
aS'appl_814'
p904
aS'appl_56'
p905
aS'appl_354'
p906
ag714
assS'St Barnabas Medical Center Program'
p907
(dp908
g3
I3
sg4
(lp909
S'appl_81'
p910
aS'appl_767'
p911
aS'appl_1287'
p912
ag22
aS'appl_330'
p913
ag7
aS'appl_294'
p914
aS'appl_904'
p915
aS'appl_967'
p916
ag871
aS'appl_751'
p917
ag229
aS'appl_961'
p918
aS'appl_138'
p919
ag808
ag368
assS'Dartmouth-Hitchcock Medical Center Program'
p920
(dp921
g3
I6
sg4
(lp922
g505
ag789
aS'appl_373'
p923
ag879
ag795
aS'appl_1517'
p924
ag583
aS'appl_804'
p925
ag767
aS'appl_551'
p926
aS'appl_415'
p927
aS'appl_1556'
p928
aS'appl_997'
p929
ag341
assS'St Louis University School of Medicine Program'
p930
(dp931
g3
I5
sg4
(lp932
g698
ag306
aS'appl_679'
p933
ag85
aS'appl_841'
p934
aS'appl_458'
p935
ag303
aS'appl_80'
p936
aS'appl_1116'
p937
ag71
aS'appl_614'
p938
ag87
aS'appl_1533'
p939
aS'appl_389'
p940
ag484
assS'Mayo Clinic College of Medicine and Science (Rochester) Program'
p941
(dp942
g3
I6
sg4
(lp943
g516
ag198
aS'appl_1580'
p944
aS'appl_768'
p945
aS'appl_1279'
p946
aS'appl_141'
p947
ag110
ag283
ag251
aS'appl_411'
p948
ag739
aS'appl_1331'
p949
ag691
ag270
ag266
aS'appl_1114'
p950
aS'appl_654'
p951
aS'appl_118'
p952
assS'Vanderbilt University Medical Center Program'
p953
(dp954
g3
I4
sg4
(lp955
S'appl_334'
p956
ag47
aS'appl_328'
p957
aS'appl_564'
p958
aS'appl_694'
p959
ag560
ag782
aS'appl_299'
p960
ag70
aS'appl_1122'
p961
ag937
aS'appl_596'
p962
aS'appl_1515'
p963
assS'Virginia Commonwealth University Health System Program'
p964
(dp965
g3
I2
sg4
(lp966
S'appl_384'
p967
aS'appl_1375'
p968
aS'appl_970'
p969
ag296
aS'appl_263'
p970
aS'appl_952'
p971
ag399
aS'appl_78'
p972
ag605
ag466
aS'appl_277'
p973
aS'appl_965'
p974
aS'appl_177'
p975
ag332
aS'appl_103'
p976
ag76
assS'Duke University Hospital Program'
p977
(dp978
g3
I3
sg4
(lp979
g177
aS'appl_956'
p980
aS'appl_710'
p981
ag786
ag195
aS'appl_122'
p982
ag752
ag414
aS'appl_981'
p983
aS'appl_11'
p984
aS'appl_1470'
p985
aS'appl_1118'
p986
assS"Brigham and Women's Hospital Program"
p987
(dp988
g3
I2
sg4
(lp989
S'appl_835'
p990
aS'appl_267'
p991
ag368
aS'appl_416'
p992
aS'appl_696'
p993
aS'appl_1366'
p994
ag703
aS'appl_1057'
p995
aS'appl_286'
p996
ag105
aS'appl_1448'
p997
aS'appl_1594'
p998
aS'appl_1149'
p999
assS'University of Arkansas for Medical Sciences Program'
p1000
(dp1001
g3
I3
sg4
(lp1002
S'appl_1283'
p1003
ag819
ag207
aS'appl_929'
p1004
aS'appl_319'
p1005
ag222
ag531
aS'appl_1220'
p1006
aS'appl_505'
p1007
aS'appl_1008'
p1008
aS'appl_495'
p1009
aS'appl_401'
p1010
aS'appl_1422'
p1011
aS'appl_136'
p1012
assS'University of Southern California/LAC+USC Medical Center Program'
p1013
(dp1014
g3
I7
sg4
(lp1015
S'appl_627'
p1016
aS'appl_1002'
p1017
ag195
ag196
ag457
ag582
ag690
ag53
aS'appl_214'
p1018
ag518
ag400
ag500
ag366
aS'appl_385'
p1019
ag460
ag83
assS'Beth Israel Deaconess Medical Center/Harvard Medical School Program'
p1020
(dp1021
g3
I2
sg4
(lp1022
g983
ag985
aS'appl_312'
p1023
ag870
ag937
aS'appl_1420'
p1024
ag445
aS'appl_610'
p1025
aS'appl_402'
p1026
aS'appl_193'
p1027
ag315
ag122
aS'appl_821'
p1028
aS'appl_1502'
p1029
assS'University of Iowa Hospitals and Clinics Program'
p1030
(dp1031
g3
I5
sg4
(lp1032
g500
aS'appl_1110'
p1033
ag253
aS'appl_883'
p1034
aS'appl_996'
p1035
aS'appl_218'
p1036
ag879
ag439
ag785
ag302
ag1024
ag141
aS'appl_1031'
p1037
assS'University of Washington Program'
p1038
(dp1039
g3
I7
sg4
(lp1040
g392
aS'appl_1082'
p1041
ag584
aS'appl_1596'
p1042
aS'appl_124'
p1043
aS'appl_460'
p1044
aS'appl_1587'
p1045
ag179
ag522
ag235
ag808
ag706
aS'appl_397'
p1046
assS'Baylor College of Medicine Program'
p1047
(dp1048
g3
I7
sg4
(lp1049
S'appl_1421'
p1050
aS'appl_1408'
p1051
aS'appl_213'
p1052
ag460
ag181
aS'appl_1336'
p1053
ag500
ag330
ag379
aS'appl_598'
p1054
ag810
ag177
ag424
aS'appl_1417'
p1055
aS'appl_287'
p1056
ag233
aS'appl_1323'
p1057
ag547
aS'appl_1229'
p1058
ag807
assS'Tufts Medical Center Program'
p1059
(dp1060
g3
I3
sg4
(lp1061
S'appl_1265'
p1062
ag798
ag41
ag711
ag659
ag865
aS'appl_1446'
p1063
ag765
aS'appl_369'
p1064
aS'appl_1232'
p1065
ag473
ag265
aS'appl_794'
p1066
aS'appl_1'
p1067
assS'Temple University Hospital Program'
p1068
(dp1069
g3
I3
sg4
(lp1070
g858
aS'appl_772'
p1071
aS'appl_536'
p1072
ag1025
ag758
ag912
aS'appl_729'
p1073
aS'appl_352'
p1074
ag890
aS'appl_1250'
p1075
aS'appl_1506'
p1076
ag222
aS'appl_1268'
p1077
ag565
ag353
aS'appl_1436'
p1078
assS'Detroit Medical Center/Wayne State University Program'
p1079
(dp1080
g3
I5
sg4
(lp1081
S'appl_1546'
p1082
ag958
aS'appl_340'
p1083
ag845
ag518
aS'appl_207'
p1084
ag207
aS'appl_817'
p1085
aS'appl_139'
p1086
ag940
aS'appl_43'
p1087
ag990
aS'appl_635'
p1088
ag911
assS'Hofstra Northwell School of Medicine at Staten Island University Hospital Program'
p1089
(dp1090
g3
I3
sg4
(lp1091
g621
aS'appl_173'
p1092
ag565
ag718
aS'appl_1280'
p1093
aS'appl_265'
p1094
aS'appl_302'
p1095
ag546
ag702
aS'appl_518'
p1096
aS'appl_1046'
p1097
ag577
ag738
ag483
aS'appl_1158'
p1098
aS'appl_1128'
p1099
ag62
assS'Nassau University Medical Center Program'
p1100
(dp1101
g3
I4
sg4
(lp1102
S'appl_224'
p1103
aS'appl_1080'
p1104
ag191
aS'appl_1016'
p1105
aS'appl_816'
p1106
aS'appl_735'
p1107
ag682
ag266
aS'appl_730'
p1108
aS'appl_238'
p1109
ag34
ag928
aS'appl_1089'
p1110
ag378
aS'appl_565'
p1111
ag839
ag37
assS'University of Utah Program'
p1112
(dp1113
g3
I8
sg4
(lp1114
g842
ag470
aS'appl_700'
p1115
ag689
ag991
ag167
aS'appl_1107'
p1116
aS'appl_1271'
p1117
aS'appl_1113'
p1118
aS'appl_1233'
p1119
ag584
aS'appl_485'
p1120
ag237
ag67
aS'appl_1043'
p1121
aS'appl_1020'
p1122
assS'West Virginia University Program'
p1123
(dp1124
g3
I8
sg4
(lp1125
g676
ag665
ag571
ag86
ag1106
ag307
aS'appl_665'
p1126
aS'appl_1428'
p1127
aS'appl_1186'
p1128
aS'appl_1414'
p1129
ag814
ag1011
ag563
aS'appl_356'
p1130
aS'appl_886'
p1131
ag871
ag315
assS'Medical University of South Carolina Program'
p1132
(dp1133
g3
I6
sg4
(lp1134
g1121
aS'appl_912'
p1135
aS'appl_1208'
p1136
ag775
ag631
aS'appl_678'
p1137
ag174
aS'appl_1108'
p1138
ag711
aS'appl_70'
p1139
ag689
ag703
ag53
aS'appl_1291'
p1140
aS'appl_83'
p1141
ag65
ag269
ag129
aS'appl_1570'
p1142
ag356
assS'Henry Ford Hospital/Wayne State University Program'
p1143
(dp1144
g3
I2
sg4
(lp1145
g949
ag403
ag592
ag437
aS'appl_479'
p1146
aS'appl_475'
p1147
aS'appl_1081'
p1148
aS'appl_437'
p1149
aS'appl_529'
p1150
ag400
ag185
aS'appl_1044'
p1151
aS'appl_1309'
p1152
aS'appl_972'
p1153
ag699
ag571
aS'appl_695'
p1154
aS'appl_336'
p1155
ag830
assS'University of Missouri-Columbia Program'
p1156
(dp1157
g3
I2
sg4
(lp1158
S'appl_66'
p1159
aS'appl_1194'
p1160
ag240
ag1023
aS'appl_1095'
p1161
aS'appl_1578'
p1162
ag367
ag42
ag652
aS'appl_321'
p1163
ag1043
ag190
aS'appl_1434'
p1164
ag18
aS'appl_1352'
p1165
ag901
aS'appl_1137'
p1166
assS'University of South Alabama Program'
p1167
(dp1168
g3
I5
sg4
(lp1169
g670
ag429
ag672
ag1166
ag163
ag247
ag991
aS'appl_1500'
p1170
ag1146
aS'appl_244'
p1171
aS'appl_320'
p1172
aS'appl_1327'
p1173
aS'appl_953'
p1174
ag729
assS'McGaw Medical Center of Northwestern University Program'
p1175
(dp1176
g3
I5
sg4
(lp1177
g1116
ag201
ag740
aS'appl_433'
p1178
aS'appl_98'
p1179
ag712
ag399
ag1035
aS'appl_502'
p1180
aS'appl_523'
p1181
ag592
ag1016
assS'University of Puerto Rico Program'
p1182
(dp1183
g3
I3
sg4
(lp1184
S'appl_1316'
p1185
ag151
aS'appl_496'
p1186
aS'appl_860'
p1187
ag630
ag992
ag110
aS'appl_23'
p1188
ag608
ag210
ag891
ag620
ag1027
aS'appl_446'
p1189
aS'appl_33'
p1190
aS'appl_538'
p1191
ag366
assS'University of Massachusetts Program'
p1192
(dp1193
g3
I8
sg4
(lp1194
g321
aS'appl_877'
p1195
ag721
ag191
ag501
ag940
ag48
aS'appl_919'
p1196
aS'appl_917'
p1197
ag512
ag800
ag557
aS'appl_1042'
p1198
ag61
ag1033
ag250
ag111
assS'University of Louisville Program'
p1199
(dp1200
g3
I6
sg4
(lp1201
g381
aS'appl_233'
p1202
ag753
ag959
ag902
aS'appl_243'
p1203
ag1137
ag747
aS'appl_1435'
p1204
aS'appl_492'
p1205
ag595
ag891
aS'appl_1102'
p1206
aS'appl_798'
p1207
ag197
aS'appl_875'
p1208
ag714
aS'appl_1447'
p1209
assS'Ohio State University Hospital Program'
p1210
(dp1211
g3
I3
sg4
(lp1212
g168
ag926
ag220
ag100
ag1074
ag913
aS'appl_1243'
p1213
aS'appl_1245'
p1214
aS'appl_259'
p1215
ag738
ag1164
aS'appl_1197'
p1216
assS'University at Buffalo Program'
p1217
(dp1218
g3
I2
sg4
(lp1219
S'appl_209'
p1220
aS'appl_812'
p1221
aS'appl_1567'
p1222
ag145
aS'appl_941'
p1223
ag467
ag1096
aS'appl_842'
p1224
ag321
ag1202
aS'appl_1347'
p1225
aS'appl_63'
p1226
ag452
aS'appl_607'
p1227
assS'University of California (San Francisco) Program'
p1228
(dp1229
g3
I5
sg4
(lp1230
g1004
aS'appl_837'
p1231
ag915
ag729
aS'appl_769'
p1232
aS'appl_483'
p1233
ag68
ag166
aS'appl_1126'
p1234
ag182
ag319
ag580
aS'appl_1581'
p1235
ag616
ag418
ag581
aS'appl_179'
p1236
ag271
assS'University of Texas Southwestern Medical School Program'
p1237
(dp1238
g3
I7
sg4
(lp1239
S'appl_134'
p1240
ag178
ag53
ag207
ag22
ag21
ag520
aS'appl_948'
p1241
ag397
ag232
ag826
ag72
aS'appl_99'
p1242
ag1206
aS'appl_102'
p1243
aS'appl_1484'
p1244
ag239
ag609
ag417
ag30
assS'University of Rochester Program'
p1245
(dp1246
g3
I4
sg4
(lp1247
g765
ag1033
ag576
aS'appl_1155'
p1248
aS'appl_865'
p1249
ag799
ag93
aS'appl_17'
p1250
ag747
aS'appl_403'
p1251
aS'appl_833'
p1252
ag898
ag873
assS'University of Kansas School of Medicine Program'
p1253
(dp1254
g3
I4
sg4
(lp1255
S'appl_486'
p1256
ag1130
aS'appl_709'
p1257
ag21
aS'appl_434'
p1258
ag1116
ag1162
ag844
aS'appl_106'
p1259
aS'appl_1520'
p1260
ag89
aS'appl_1549'
p1261
ag229
ag740
aS'appl_1056'
p1262
aS'appl_642'
p1263
ag121
ag1041
assS'SUNY Upstate Medical University Program'
p1264
(dp1265
g3
I3
sg4
(lp1266
g939
aS'appl_987'
p1267
ag501
aS'appl_1247'
p1268
ag459
aS'appl_50'
p1269
ag629
ag54
aS'appl_869'
p1270
ag690
ag716
ag910
ag428
aS'appl_824'
p1271
ag350
ag105
ag975
aS'appl_1599'
p1272
ag899
aS'appl_316'
p1273
assS'Montefiore Medical Center/Albert Einstein College of Medicine Program'
p1274
(dp1275
g3
I5
sg4
(lp1276
S'appl_1079'
p1277
ag1185
ag1227
ag516
aS'appl_923'
p1278
ag1099
ag237
ag231
aS'appl_1412'
p1279
aS'appl_1124'
p1280
aS'appl_1063'
p1281
aS'appl_890'
p1282
ag898
ag565
ag356
assS'Brookwood Baptist Health Program'
p1283
(dp1284
g3
I7
sg4
(lp1285
g538
aS'appl_1391'
p1286
ag51
ag1106
ag584
ag1208
aS'appl_210'
p1287
ag670
ag423
ag728
ag1016
ag934
ag817
ag241
ag1186
aS'appl_1182'
p1288
ag781
assS'University of Chicago (NorthShore) Program'
p1289
(dp1290
g3
I3
sg4
(lp1291
S'appl_1381'
p1292
aS'appl_1497'
p1293
ag438
aS'appl_25'
p1294
ag432
ag1272
aS'appl_1411'
p1295
ag738
ag555
ag1160
ag64
ag611
assS'University of Pennsylvania Program'
p1296
(dp1297
g3
I7
sg4
(lp1298
S'appl_376'
p1299
aS'appl_1537'
p1300
ag660
aS'appl_72'
p1301
aS'appl_1036'
p1302
ag470
ag713
aS'appl_1256'
p1303
aS'appl_151'
p1304
ag283
aS'appl_148'
p1305
ag22
ag1252
aS'appl_1169'
p1306
aS'appl_894'
p1307
assS'Louisiana State University Program'
p1308
(dp1309
g3
I6
sg4
(lp1310
g142
aS'appl_1052'
p1311
aS'appl_1303'
p1312
aS'appl_1187'
p1313
aS'appl_1088'
p1314
aS'appl_757'
p1315
ag1115
ag758
aS'appl_977'
p1316
ag1142
aS'appl_1440'
p1317
ag431
aS'appl_388'
p1318
aS'appl_1530'
p1319
aS'appl_661'
p1320
ag1243
ag645
ag1095
assS'Wake Forest University School of Medicine Program'
p1321
(dp1322
g3
I6
sg4
(lp1323
g232
aS'appl_1152'
p1324
aS'appl_1433'
p1325
ag1304
aS'appl_836'
p1326
ag173
ag442
ag1174
ag370
ag829
aS'appl_510'
p1327
ag1248
ag781
ag1150
assS'New York Presbyterian Hospital (Columbia Campus) Program'
p1328
(dp1329
g3
I2
sg4
(lp1330
S'appl_1475'
p1331
ag652
aS'appl_481'
p1332
ag459
aS'appl_606'
p1333
aS'appl_1543'
p1334
ag1065
ag465
aS'appl_1111'
p1335
ag1301
aS'appl_413'
p1336
ag343
aS'appl_574'
p1337
ag123
ag1104
aS'appl_310'
p1338
ag535
ag974
assS'University of Florida College of Medicine Jacksonville Program'
p1339
(dp1340
g3
I8
sg4
(lp1341
g87
aS'appl_1486'
p1342
ag75
aS'appl_597'
p1343
aS'appl_187'
p1344
ag1093
aS'appl_292'
p1345
aS'appl_1392'
p1346
ag791
aS'appl_978'
p1347
aS'appl_1154'
p1348
aS'appl_1133'
p1349
ag935
aS'appl_537'
p1350
ag73
ag533
aS'appl_160'
p1351
aS'appl_1251'
p1352
assS'Texas Tech University (Lubbock) Program'
p1353
(dp1354
g3
I2
sg4
(lp1355
g284
ag610
ag982
aS'appl_973'
p1356
ag787
ag601
aS'appl_1511'
p1357
ag940
ag1063
ag429
ag9
aS'appl_235'
p1358
aS'appl_921'
p1359
aS'appl_5'
p1360
aS'appl_427'
p1361
ag948
aS'appl_1132'
p1362
ag17
ag902
ag937
aS'appl_1041'
p1363
assS'Thomas Jefferson University Program'
p1364
(dp1365
g3
I2
sg4
(lp1366
g373
ag87
ag105
ag855
ag1185
ag333
ag691
ag1261
aS'appl_1566'
p1367
ag101
ag16
ag1042
ag1166
ag928
ag1235
assS'University of Chicago Program'
p1368
(dp1369
g3
I6
sg4
(lp1370
S'appl_1350'
p1371
ag185
aS'appl_826'
p1372
ag1286
ag157
aS'appl_1198'
p1373
ag70
ag832
aS'appl_215'
p1374
ag291
ag975
aS'appl_543'
p1375
aS'appl_1069'
p1376
ag910
aS'appl_123'
p1377
aS'appl_766'
p1378
assS'Loma Linda University Health Education Consortium Program'
p1379
(dp1380
g3
I5
sg4
(lp1381
g1331
ag93
aS'appl_1488'
p1382
aS'appl_1490'
p1383
aS'appl_471'
p1384
ag1120
ag700
ag148
aS'appl_1389'
p1385
ag13
ag368
ag1301
ag332
aS'appl_21'
p1386
ag448
aS'appl_1451'
p1387
aS'appl_549'
p1388
ag255
ag961
assS'University of North Carolina Hospitals Program'
p1389
(dp1390
g3
I7
sg4
(lp1391
g139
aS'appl_1061'
p1392
ag1189
aS'appl_104'
p1393
ag727
aS'appl_347'
p1394
ag1084
aS'appl_498'
p1395
aS'appl_478'
p1396
ag525
ag692
ag1105
ag698
aS'appl_164'
p1397
ag241
ag457
assS'Penrose-St Francis Health Services Program'
p1398
(dp1399
g3
I5
sg4
(lp1400
S'appl_524'
p1401
aS'appl_1297'
p1402
aS'appl_548'
p1403
aS'appl_203'
p1404
aS'appl_117'
p1405
ag900
ag555
ag1119
ag858
aS'appl_10'
p1406
ag1023
aS'appl_491'
p1407
ag807
ag230
ag575
ag626
ag28
ag484
ag698
ag1104
ag335
assS'Icahn School of Medicine at Mount Sinai/St Luke\xe2\x80\x99s-Roosevelt Hospital Center Program'
p1408
(dp1409
g3
I5
sg4
(lp1410
S'appl_86'
p1411
ag1195
aS'appl_1367'
p1412
aS'appl_16'
p1413
aS'appl_143'
p1414
aS'appl_1541'
p1415
ag210
ag89
aS'appl_590'
p1416
ag64
ag251
ag1360
assS'Mount Sinai Medical Center of Florida Program'
p1417
(dp1418
g3
I4
sg4
(lp1419
g609
ag1034
aS'appl_255'
p1420
ag447
aS'appl_234'
p1421
ag549
ag336
aS'appl_910'
p1422
ag1312
ag1005
aS'appl_26'
p1423
ag108
ag1326
aS'appl_1242'
p1424
ag38
ag1372
ag936
ag446
ag212
ag539
ag49
aS'appl_414'
p1425
assS'University of Tennessee Medical Center at Knoxville Program'
p1426
(dp1427
g3
I6
sg4
(lp1428
g125
aS'appl_1192'
p1429
aS'appl_1094'
p1430
ag457
aS'appl_872'
p1431
ag1119
ag13
aS'appl_1390'
p1432
ag1050
ag680
ag370
ag1252
ag1058
assS'University of Hawaii Program'
p1433
(dp1434
g3
I7
sg4
(lp1435
g1260
ag357
ag638
ag999
ag175
ag593
aS'appl_1083'
p1436
ag1273
ag1041
ag307
ag426
ag121
aS'appl_472'
p1437
ag1078
assS'East Tennessee State University Program'
p1438
(dp1439
g3
I4
sg4
(lp1440
g1414
ag84
ag1363
ag1065
ag168
ag364
ag1202
aS'appl_609'
p1441
aS'appl_341'
p1442
aS'appl_637'
p1443
ag1129
ag1209
ag1407
aS'appl_878'
p1444
aS'appl_6'
p1445
ag841
aS'appl_624'
p1446
aS'appl_1074'
p1447
assS'Rush University Medical Center Program'
p1448
(dp1449
g3
I5
sg4
(lp1450
g117
ag402
ag660
ag1420
aS'appl_876'
p1451
aS'appl_463'
p1452
ag293
aS'appl_130'
p1453
ag423
aS'appl_317'
p1454
ag1242
ag1042
ag289
aS'appl_345'
p1455
ag1273
assS'University of Colorado Program'
p1456
(dp1457
g3
I5
sg4
(lp1458
g109
aS'appl_1305'
p1459
aS'appl_777'
p1460
ag1188
ag495
ag505
ag97
ag1226
aS'appl_1319'
p1461
ag322
ag747
ag790
aS'appl_1013'
p1462
ag1034
ag1345
aS'appl_1453'
p1463
aS'appl_473'
p1464
assS'UCLA Medical Center Program'
p1465
(dp1466
g3
I3
sg4
(lp1467
g1358
ag1207
ag112
ag1280
aS'appl_223'
p1468
ag662
ag1350
aS'appl_1542'
p1469
aS'appl_304'
p1470
ag828
ag1356
ag38
aS'appl_1214'
p1471
ag641
ag833
ag129
assS'Stanford University Program'
p1472
(dp1473
g3
I3
sg4
(lp1474
g575
aS'appl_64'
p1475
ag57
ag753
ag108
ag1349
aS'appl_85'
p1476
ag1401
ag772
ag410
aS'appl_533'
p1477
ag1415
aS'appl_194'
p1478
aS'appl_424'
p1479
ag107
ag65
ag125
assS'University of California (Irvine) Program'
p1480
(dp1481
g3
I3
sg4
(lp1482
S'appl_191'
p1483
ag70
ag1136
aS'appl_82'
p1484
aS'appl_1591'
p1485
ag860
ag426
ag182
ag789
aS'appl_576'
p1486
ag1452
ag757
ag240
assS'University of Illinois College of Medicine at Chicago Program'
p1487
(dp1488
g3
I7
sg4
(lp1489
g292
ag57
aS'appl_128'
p1490
ag289
aS'appl_900'
p1491
ag883
ag924
ag86
ag31
ag1052
aS'appl_183'
p1492
ag1441
ag1160
aS'appl_881'
p1493
assS'Orlando Health Program'
p1494
(dp1495
g3
I4
sg4
(lp1496
S'appl_1000'
p1497
ag75
ag631
ag323
ag1043
aS'appl_497'
p1498
aS'appl_898'
p1499
ag770
aS'appl_862'
p1500
ag1235
aS'appl_363'
p1501
aS'appl_1258'
p1502
ag739
assS'Vidant Medical Center/East Carolina University Program'
p1503
(dp1504
g3
I2
sg4
(lp1505
g606
ag550
ag558
ag976
ag150
ag844
ag509
aS'appl_1487'
p1506
ag484
aS'appl_803'
p1507
ag266
ag855
ag865
ag840
ag1367
ag972
ag853
assS'Hofstra Northwell School of Medicine Program'
p1508
(dp1509
g3
I2
sg4
(lp1510
g39
ag129
ag1029
ag373
aS'appl_201'
p1511
ag1424
ag826
aS'appl_556'
p1512
ag1010
ag579
aS'appl_1207'
p1513
ag467
ag1071
aS'appl_1450'
p1514
ag47
ag396
ag1452
ag319
aS'appl_406'
p1515
assS'University of Arizona Program'
p1516
(dp1517
g3
I3
sg4
(lp1518
g1128
aS'appl_184'
p1519
ag228
ag82
ag791
ag1295
ag617
ag495
aS'appl_617'
p1520
aS'appl_1166'
p1521
ag472
aS'appl_470'
p1522
aS'appl_1534'
p1523
aS'appl_897'
p1524
ag1306
ag270
assS'New York Presbyterian Hospital (Cornell Campus) Program'
p1525
(dp1526
g3
I6
sg4
(lp1527
g354
aS'appl_1281'
p1528
ag112
aS'appl_1393'
p1529
ag743
ag656
ag20
ag284
ag927
ag383
ag10
ag1376
ag1453
ag474
ag962
ag579
ag701
assS'University of Texas Health Science Center at Houston Program'
p1530
(dp1531
g3
I5
sg4
(lp1532
g597
aS'appl_144'
p1533
ag1227
ag167
ag999
aS'appl_796'
p1534
ag681
ag514
ag711
ag834
ag1519
ag1109
aS'appl_632'
p1535
ag962
ag546
ag428
assS'New York Medical College at Westchester Medical Center Program'
p1536
(dp1537
g3
I4
sg4
(lp1538
g975
ag517
ag163
aS'appl_404'
p1539
ag769
ag1382
ag1371
aS'appl_846'
p1540
aS'appl_1148'
p1541
ag1249
ag756
ag1507
aS'appl_1523'
p1542
aS'appl_1104'
p1543
ag1453
aS'appl_1579'
p1544
aS'appl_44'
p1545
ag455
assS'Howard University Program'
p1546
(dp1547
g3
I7
sg4
(lp1548
S'appl_749'
p1549
ag412
ag270
aS'appl_146'
p1550
ag331
ag69
ag489
aS'appl_450'
p1551
aS'appl_1159'
p1552
ag1320
aS'appl_355'
p1553
ag251
ag1232
ag429
ag949
assS'National Institutes of Health Clinical Center Program'
p1554
(dp1555
g3
I2
sg4
(lp1556
g1073
ag1534
ag348
aS'appl_1498'
p1557
aS'appl_1007'
p1558
ag323
ag22
ag758
ag990
ag641
ag996
ag524
aS'appl_178'
p1559
ag184
assS'Texas A&M College of Medicine-Scott and White Program'
p1560
(dp1561
g3
I6
sg4
(lp1562
g348
ag90
aS'appl_400'
p1563
aS'appl_741'
p1564
aS'appl_1121'
p1565
ag1387
ag913
ag1533
ag1540
aS'appl_630'
p1566
ag129
aS'appl_569'
p1567
ag549
ag961
assS'University of California (Davis) Health System Program'
p1568
(dp1569
g3
I3
sg4
(lp1570
g919
aS'appl_759'
p1571
ag1348
ag856
ag676
ag1404
aS'appl_120'
p1572
ag220
ag475
ag430
ag592
ag706
ag502
aS'appl_37'
p1573
ag356
ag1436
ag801
aS'appl_623'
p1574
ag1307
aS'appl_1575'
p1575
ag510
assS'Penn State Milton S Hershey Medical Center Program'
p1576
(dp1577
g3
I7
sg4
(lp1578
S'appl_196'
p1579
ag1360
ag1198
ag1051
ag514
aS'appl_262'
p1580
aS'appl_599'
p1581
aS'appl_333'
p1582
ag1251
ag536
ag1446
ag1572
aS'appl_186'
p1583
ag1131
ag1208
ag1262
assS'University of Wisconsin Program'
p1584
(dp1585
g3
I7
sg4
(lp1586
g1424
ag322
ag1514
ag293
ag425
ag311
ag1092
ag1196
ag295
ag427
ag1478
aS'appl_771'
p1587
ag303
ag209
aS'appl_212'
p1588
ag1189
ag146
ag1335
assS'Tulane University Program'
p1589
(dp1590
g3
I8
sg4
(lp1591
g1235
aS'appl_140'
p1592
ag360
ag1006
ag958
ag359
ag501
ag1387
ag1444
ag191
ag354
aS'appl_855'
p1593
ag703
assS'Stony Brook Medicine/University Hospital Program'
p1594
(dp1595
g3
I6
sg4
(lp1596
g1511
aS'appl_960'
p1597
ag193
ag56
ag50
ag641
ag691
aS'appl_580'
p1598
ag546
ag744
aS'appl_477'
p1599
ag118
ag510
ag54
ag1074
assS'Loyola University Program'
p1600
(dp1601
g3
I4
sg4
(lp1602
g997
ag54
ag1363
ag642
ag1127
aS'appl_615'
p1603
aS'appl_112'
p1604
ag1186
ag721
ag161
ag1304
ag788
ag274
ag1502
ag1394
aS'appl_660'
p1605
assS'Methodist Hospital (Houston) Program'
p1606
(dp1607
g3
I5
sg4
(lp1608
S'appl_1272'
p1609
ag548
ag623
ag1539
ag247
ag332
ag81
aS'appl_780'
p1610
aS'appl_1049'
p1611
aS'appl_1324'
p1612
ag383
aS'appl_1050'
p1613
ag1293
aS'appl_648'
p1614
ag71
ag1491
ag84
ag1553
aS'appl_773'
p1615
ag1027
assS'Winthrop-University Hospital Program'
p1616
(dp1617
g3
I4
sg4
(lp1618
g936
ag76
ag769
ag475
ag1083
aS'appl_1559'
p1619
ag985
ag8
ag912
ag169
ag431
ag1485
aS'appl_1514'
p1620
ag1179
aS'appl_628'
p1621
aS'appl_166'
p1622
aS'appl_1191'
p1623
assS'Louisiana State University (Shreveport) Program'
p1624
(dp1625
g3
I7
sg4
(lp1626
g1344
aS'appl_1321'
p1627
aS'appl_464'
p1628
aS'appl_1565'
p1629
ag1071
ag1579
ag641
ag281
aS'appl_444'
p1630
ag673
ag335
assS'University of Missouri at Kansas City Program'
p1631
(dp1632
g3
I3
sg4
(lp1633
S'appl_41'
p1634
ag522
ag769
ag1006
ag1406
ag284
ag1292
ag1188
ag539
ag1163
ag580
ag885
ag1610
ag1314
aS'appl_1127'
p1635
ag747
ag56
ag1491
ass.