(dp0
S"St Joseph's Hospital and Medical Center Program"
p1
(dp2
S'positions'
p3
I3
sS'rankings'
p4
(lp5
S'appl_44'
p6
aS'appl_30'
p7
aS'appl_69'
p8
aS'appl_28'
p9
aS'appl_54'
p10
aS'appl_8'
p11
aS'appl_32'
p12
aS'appl_10'
p13
aS'appl_42'
p14
aS'appl_33'
p15
aS'appl_14'
p16
aS'appl_68'
p17
aS'appl_15'
p18
aS'appl_21'
p19
aS'appl_17'
p20
aS'appl_13'
p21
assS'University of Alabama Medical Center Program'
p22
(dp23
g3
I5
sg4
(lp24
S'appl_2'
p25
aS'appl_41'
p26
ag13
aS'appl_16'
p27
aS'appl_9'
p28
ag17
aS'appl_35'
p29
aS'appl_37'
p30
aS'appl_22'
p31
aS'appl_50'
p32
ag6
ag15
aS'appl_5'
p33
ag11
assS'Brookwood Baptist Health Program'
p34
(dp35
g3
I4
sg4
(lp36
S'appl_38'
p37
aS'appl_29'
p38
aS'appl_67'
p39
ag10
ag26
aS'appl_49'
p40
aS'appl_60'
p41
ag33
aS'appl_58'
p42
aS'appl_62'
p43
aS'appl_47'
p44
aS'appl_55'
p45
ag16
ag28
assS'University of Arkansas for Medical Sciences Program'
p46
(dp47
g3
I2
sg4
(lp48
S'appl_11'
p49
aS'appl_40'
p50
aS'appl_27'
p51
ag41
ag40
ag6
aS'appl_51'
p52
ag37
ag38
aS'appl_31'
p53
ag31
ag14
aS'appl_63'
p54
aS'appl_23'
p55
ag13
aS'appl_64'
p56
ag26
assS'University of South Alabama Program'
p57
(dp58
g3
I3
sg4
(lp59
g52
aS'appl_19'
p60
aS'appl_43'
p61
aS'appl_4'
p62
ag25
aS'appl_7'
p63
ag44
aS'appl_1'
p64
ag31
ag14
ag9
aS'appl_59'
p65
ag50
ass.