(dp0
S"St Joseph's Hospital and Medical Center Program"
p1
(dp2
S'positions'
p3
I2
sS'rankings'
p4
(lp5
S'appl_64'
p6
aS'appl_29'
p7
aS'appl_3'
p8
aS'appl_49'
p9
aS'appl_33'
p10
aS'appl_18'
p11
aS'appl_12'
p12
aS'appl_39'
p13
aS'appl_15'
p14
aS'appl_34'
p15
aS'appl_6'
p16
aS'appl_4'
p17
assS'University of Alabama Medical Center Program'
p18
(dp19
g3
I7
sg4
(lp20
S'appl_0'
p21
aS'appl_69'
p22
aS'appl_47'
p23
aS'appl_37'
p24
aS'appl_40'
p25
aS'appl_30'
p26
aS'appl_45'
p27
aS'appl_53'
p28
aS'appl_27'
p29
aS'appl_22'
p30
aS'appl_55'
p31
aS'appl_19'
p32
aS'appl_21'
p33
aS'appl_46'
p34
aS'appl_10'
p35
assS'Brookwood Baptist Health Program'
p36
(dp37
g3
I3
sg4
(lp38
g30
aS'appl_28'
p39
ag16
aS'appl_63'
p40
aS'appl_35'
p41
aS'appl_11'
p42
ag33
aS'appl_56'
p43
aS'appl_20'
p44
aS'appl_8'
p45
aS'appl_61'
p46
ag26
aS'appl_25'
p47
aS'appl_57'
p48
ag24
ag13
assS'University of Arkansas for Medical Sciences Program'
p49
(dp50
g3
I3
sg4
(lp51
g44
ag25
aS'appl_16'
p52
ag9
ag41
aS'appl_67'
p53
aS'appl_5'
p54
ag30
ag43
ag7
aS'appl_68'
p55
aS'appl_52'
p56
ag21
aS'appl_38'
p57
ag48
ag35
ag12
assS'University of South Alabama Program'
p58
(dp59
g3
I4
sg4
(lp60
g7
aS'appl_59'
p61
aS'appl_44'
p62
ag52
aS'appl_60'
p63
ag21
aS'appl_23'
p64
ag41
ag48
aS'appl_66'
p65
aS'appl_54'
p66
ag27
ag35
ag17
ass.